Certificate:
    Data:
        Version: 3 (0x2)
        Serial Number: 26 (0x1a)
        Signature Algorithm: sha256WithRSAEncryption
        Issuer: C=RU, ST=SVERDLOVSK REGION, L=YEKATERINBURG, O=iBLOG.PRO, OU=iBLOG.PRO, CN=iBLOG.PRO CA/emailAddress=vorlon@iblog.pro
        Validity
            Not Before: May  4 04:59:45 2022 GMT
            Not After : May  4 04:59:45 2023 GMT
        Subject: C=RU, ST=SVERDLOVSK REGION, L=YEKATERINBURG, O=iBLOG.PRO, CN=harbor.iblog.pro
        Subject Public Key Info:
            Public Key Algorithm: rsaEncryption
                Public-Key: (2048 bit)
                Modulus:
                    00:90:f5:82:b1:9f:98:eb:10:66:22:c2:b4:7a:d7:
                    22:5a:b9:e3:ef:e4:94:cf:23:8b:9d:4b:2c:bb:1d:
                    ba:e6:bf:be:db:d7:a3:79:fe:52:30:83:d8:9a:43:
                    c2:74:bc:4b:2e:95:ce:02:90:b2:c5:5b:3c:33:90:
                    bb:22:af:67:44:f8:d2:e3:a7:6e:1f:6d:96:12:7c:
                    1d:25:e9:b5:71:23:24:52:95:50:a4:39:99:5a:80:
                    8a:ac:4a:9b:00:50:b7:45:41:8d:7c:eb:0d:39:62:
                    3e:2d:ed:b2:8a:7a:81:c9:e4:e7:7e:67:ab:6f:9b:
                    27:83:04:03:09:39:4c:03:d0:cc:ec:c0:95:b7:5e:
                    3c:7f:b0:1a:26:71:1b:d3:8d:07:f8:51:4c:94:fa:
                    42:6d:69:46:53:b3:ae:d3:e2:7a:0a:a4:81:67:7f:
                    7c:fc:42:3b:a7:ef:c7:5c:9d:0b:25:2f:70:b9:82:
                    a1:e8:e8:b8:25:f9:35:41:77:fd:ee:7c:34:93:cd:
                    a0:2f:7e:12:33:94:50:73:80:a4:6d:cf:17:08:b2:
                    97:a6:50:4e:dc:56:10:d8:14:20:fc:62:0b:09:82:
                    29:9b:81:f7:ed:ed:7d:0f:df:f2:1c:d5:35:5f:67:
                    cf:bf:c0:bf:26:28:81:f7:b7:d5:a0:48:5a:e6:54:
                    e0:6f
                Exponent: 65537 (0x10001)
        X509v3 extensions:
            X509v3 Subject Key Identifier: 
                5D:84:A3:F6:42:8A:90:48:58:14:A5:23:A7:8F:30:34:BA:63:51:78
            X509v3 Authority Key Identifier: 
                8F:44:62:7E:84:A5:3F:F3:B2:6B:C0:6F:60:23:FB:ED:2A:22:11:E7
            X509v3 Basic Constraints: 
                CA:FALSE
            X509v3 Key Usage: 
                Digital Signature, Key Encipherment
            X509v3 Extended Key Usage: 
                TLS Web Server Authentication
            X509v3 Subject Alternative Name: 
                DNS:harbor.iblog.pro
            Netscape Comment: 
                OpenSSL Generated Certificate
    Signature Algorithm: sha256WithRSAEncryption
    Signature Value:
        1c:8f:2b:cc:5f:fb:58:b2:42:41:d4:ec:ba:0f:e5:72:b1:c0:
        d8:57:4e:13:cc:23:b8:9c:b5:0a:6d:38:14:4a:da:5d:d2:6b:
        3b:b6:f2:67:ac:35:e0:90:d2:18:7a:0e:6a:4d:c2:55:a7:b0:
        03:44:f1:1a:ef:8d:64:5c:d0:db:a4:0d:92:32:13:d4:97:6a:
        eb:db:a8:d1:24:f3:56:7c:a9:56:28:5d:75:15:60:30:cb:93:
        97:32:f1:1c:53:1b:47:e4:9f:04:3f:32:3f:b7:d3:98:66:da:
        d0:ea:41:96:2d:33:06:4d:f0:b3:cc:c4:3d:b7:cc:60:fe:33:
        ca:c8:e1:38:d1:53:3f:e2:d6:d5:87:1f:ab:23:08:11:d6:64:
        05:23:6d:92:2d:c1:24:11:48:f9:db:15:01:aa:67:3f:d2:2b:
        72:42:f0:55:7f:04:30:45:3d:38:67:b0:b3:0c:a5:4b:93:ca:
        1e:19:00:18:48:7d:f5:d2:0e:71:b7:ab:9f:09:65:ed:2e:19:
        1b:04:3f:58:bc:d1:32:44:4b:36:80:38:71:68:bb:79:bb:7b:
        30:4f:4f:c8:9d:6a:3a:53:4a:0a:2f:f9:54:cc:71:78:9b:67:
        59:ab:19:18:b4:d4:81:44:69:7c:b7:79:51:1f:57:73:a4:40:
        28:5a:4e:54:18:06:85:0c:0b:59:22:b8:2c:0c:3f:d3:8b:c8:
        33:7e:55:c1:51:85:7e:6f:58:bc:75:f8:a4:a7:24:5f:5d:15:
        24:a1:9f:e1:06:f3:cf:43:e6:e4:9a:54:7c:37:81:75:e2:aa:
        3e:7f:21:ed:81:c9:7d:1f:41:0e:d4:ea:db:21:72:59:e3:a3:
        0e:35:15:e6:c2:eb:a7:7b:9d:ff:de:3f:9a:7b:d8:1c:9c:7d:
        3d:e1:08:9b:7d:ac:ff:74:9a:5b:71:34:35:0a:ba:1e:02:43:
        c9:64:13:0e:50:a4:23:a4:c9:45:64:19:4e:ea:f2:60:65:32:
        f4:c2:b8:e5:af:ea:c2:97:00:1e:28:f9:83:45:87:39:09:c1:
        74:fc:78:fc:d5:19:4d:44:bd:fd:d4:b5:ac:15:ba:8f:08:65:
        f5:89:0a:fb:ab:37:40:f4:a1:69:ef:4a:19:99:8b:7d:73:27:
        29:4f:d9:05:b5:c5:02:1f:5f:f1:c3:7b:c5:ee:c1:41:a7:6b:
        50:9d:ff:83:03:70:a7:25:ff:76:54:d0:23:32:fe:f3:1f:7d:
        7c:a9:75:59:4b:45:85:89:86:3c:f8:15:a0:b3:d4:e7:ca:89:
        60:a6:24:dd:89:5e:0c:a3:92:c8:50:01:0c:89:f5:1a:a0:5d:
        ee:92:54:7a:28:ff:bb:b6
-----BEGIN CERTIFICATE-----
MIIFSTCCAzGgAwIBAgIBGjANBgkqhkiG9w0BAQsFADCBoTELMAkGA1UEBhMCUlUx
GjAYBgNVBAgMEVNWRVJETE9WU0sgUkVHSU9OMRYwFAYDVQQHDA1ZRUtBVEVSSU5C
VVJHMRIwEAYDVQQKDAlpQkxPRy5QUk8xEjAQBgNVBAsMCWlCTE9HLlBSTzEVMBMG
A1UEAwwMaUJMT0cuUFJPIENBMR8wHQYJKoZIhvcNAQkBFhB2b3Jsb25AaWJsb2cu
cHJvMB4XDTIyMDUwNDA0NTk0NVoXDTIzMDUwNDA0NTk0NVowcDELMAkGA1UEBhMC
UlUxGjAYBgNVBAgMEVNWRVJETE9WU0sgUkVHSU9OMRYwFAYDVQQHDA1ZRUtBVEVS
SU5CVVJHMRIwEAYDVQQKDAlpQkxPRy5QUk8xGTAXBgNVBAMMEGhhcmJvci5pYmxv
Zy5wcm8wggEiMA0GCSqGSIb3DQEBAQUAA4IBDwAwggEKAoIBAQCQ9YKxn5jrEGYi
wrR61yJauePv5JTPI4udSyy7Hbrmv77b16N5/lIwg9iaQ8J0vEsulc4CkLLFWzwz
kLsir2dE+NLjp24fbZYSfB0l6bVxIyRSlVCkOZlagIqsSpsAULdFQY186w05Yj4t
7bKKeoHJ5Od+Z6tvmyeDBAMJOUwD0MzswJW3Xjx/sBomcRvTjQf4UUyU+kJtaUZT
s67T4noKpIFnf3z8Qjun78dcnQslL3C5gqHo6Lgl+TVBd/3ufDSTzaAvfhIzlFBz
gKRtzxcIspemUE7cVhDYFCD8YgsJgimbgfft7X0P3/Ic1TVfZ8+/wL8mKIH3t9Wg
SFrmVOBvAgMBAAGjgbswgbgwHQYDVR0OBBYEFF2Eo/ZCipBIWBSlI6ePMDS6Y1F4
MB8GA1UdIwQYMBaAFI9EYn6EpT/zsmvAb2Aj++0qIhHnMAkGA1UdEwQCMAAwCwYD
VR0PBAQDAgWgMBMGA1UdJQQMMAoGCCsGAQUFBwMBMBsGA1UdEQQUMBKCEGhhcmJv
ci5pYmxvZy5wcm8wLAYJYIZIAYb4QgENBB8WHU9wZW5TU0wgR2VuZXJhdGVkIENl
cnRpZmljYXRlMA0GCSqGSIb3DQEBCwUAA4ICAQAcjyvMX/tYskJB1Oy6D+VyscDY
V04TzCO4nLUKbTgUStpd0ms7tvJnrDXgkNIYeg5qTcJVp7ADRPEa741kXNDbpA2S
MhPUl2rr26jRJPNWfKlWKF11FWAwy5OXMvEcUxtH5J8EPzI/t9OYZtrQ6kGWLTMG
TfCzzMQ9t8xg/jPKyOE40VM/4tbVhx+rIwgR1mQFI22SLcEkEUj52xUBqmc/0ity
QvBVfwQwRT04Z7CzDKVLk8oeGQAYSH310g5xt6ufCWXtLhkbBD9YvNEyREs2gDhx
aLt5u3swT0/InWo6U0oKL/lUzHF4m2dZqxkYtNSBRGl8t3lRH1dzpEAoWk5UGAaF
DAtZIrgsDD/Ti8gzflXBUYV+b1i8dfikpyRfXRUkoZ/hBvPPQ+bkmlR8N4F14qo+
fyHtgcl9H0EO1OrbIXJZ46MONRXmwuune53/3j+ae9gcnH094Qibfaz/dJpbcTQ1
CroeAkPJZBMOUKQjpMlFZBlO6vJgZTL0wrjlr+rClwAeKPmDRYc5CcF0/Hj81RlN
RL391LWsFbqPCGX1iQr7qzdA9KFp70oZmYt9cycpT9kFtcUCH1/xw3vF7sFBp2tQ
nf+DA3CnJf92VNAjMv7zH318qXVZS0WFiYY8+BWgs9TnyolgpiTdiV4Mo5LIUAEM
ifUaoF3uklR6KP+7tg==
-----END CERTIFICATE-----
