Certificate:
    Data:
        Version: 3 (0x2)
        Serial Number: 31 (0x1f)
        Signature Algorithm: sha256WithRSAEncryption
        Issuer: C=RU, ST=SVERDLOVSK REGION, L=YEKATERINBURG, O=iBLOG.PRO, OU=iBLOG.PRO, CN=iBLOG.PRO CA/emailAddress=vorlon@iblog.pro
        Validity
            Not Before: May  4 05:00:47 2022 GMT
            Not After : May  4 05:00:47 2023 GMT
        Subject: C=RU, ST=SVERDLOVSK REGION, L=YEKATERINBURG, O=iBLOG.PRO, CN=keycloak.iblog.pro
        Subject Public Key Info:
            Public Key Algorithm: rsaEncryption
                Public-Key: (2048 bit)
                Modulus:
                    00:99:ef:7b:bc:43:88:a9:cb:54:55:28:23:b7:2b:
                    e7:b5:c3:a2:2e:22:fd:22:70:8a:b0:06:e4:29:c0:
                    c1:a6:27:3c:f2:c3:71:4e:78:e2:2b:90:c2:74:d9:
                    fc:be:a3:da:c3:f5:e6:f7:ba:bd:b3:14:78:32:a9:
                    a2:6e:65:67:92:04:c5:e4:14:6e:f4:8d:53:34:a6:
                    10:22:40:72:c5:4a:76:33:ff:b6:d6:f6:ce:66:e8:
                    08:7f:c0:d6:52:1f:da:4c:71:e5:c6:99:38:26:59:
                    8c:61:26:8d:89:89:7f:3f:49:39:a9:1b:e5:9c:d6:
                    0f:dc:e2:69:d8:56:f3:f1:a5:3a:55:da:69:0b:41:
                    fd:0d:e3:f7:ed:2c:11:6a:bc:2d:69:74:d5:c9:14:
                    bb:a3:62:a1:0a:d7:de:39:26:f3:9d:fb:8c:1f:96:
                    52:b5:52:5b:4c:1f:2e:ec:6a:04:ea:fe:72:c5:02:
                    fc:39:32:3b:4d:be:fa:f1:6c:cf:4c:9b:c8:e0:5c:
                    46:35:1a:33:79:54:cc:1c:ec:c6:89:7f:b9:76:e5:
                    ca:b9:ec:f8:ef:78:fb:83:8a:f2:d3:9b:2d:6c:59:
                    7d:be:91:74:6f:fb:09:3b:c5:dc:47:ed:50:d0:44:
                    e4:4c:fe:16:15:db:49:13:41:e1:69:13:01:bb:c9:
                    41:0d
                Exponent: 65537 (0x10001)
        X509v3 extensions:
            X509v3 Subject Key Identifier: 
                D4:57:1D:61:81:FD:05:CC:02:6D:0A:D0:91:92:92:31:CA:AE:37:8D
            X509v3 Authority Key Identifier: 
                8F:44:62:7E:84:A5:3F:F3:B2:6B:C0:6F:60:23:FB:ED:2A:22:11:E7
            X509v3 Basic Constraints: 
                CA:FALSE
            X509v3 Key Usage: 
                Digital Signature, Key Encipherment
            X509v3 Extended Key Usage: 
                TLS Web Server Authentication
            X509v3 Subject Alternative Name: 
                DNS:keycloak.iblog.pro
            Netscape Comment: 
                OpenSSL Generated Certificate
    Signature Algorithm: sha256WithRSAEncryption
    Signature Value:
        6c:87:5f:a1:fb:49:85:b7:c0:69:0f:a4:4f:5c:d1:0b:c7:e7:
        f7:67:aa:ff:93:06:f8:68:1b:3f:a7:f6:d5:8d:fe:cf:34:dd:
        c1:f5:32:d5:42:96:d7:1d:ee:40:34:b9:8a:b9:db:71:7d:01:
        ea:56:bc:a3:7f:f6:ff:1b:ae:47:98:e5:9b:ea:fa:17:3f:fb:
        a0:f0:2e:7c:e4:d4:4e:11:b0:90:5d:a3:8f:70:de:e6:f3:20:
        f2:e2:05:36:9a:ef:59:42:53:db:82:11:3d:99:78:27:6f:a0:
        ac:56:1a:03:04:e6:23:f0:6b:b1:16:9a:0d:d3:cb:59:f2:92:
        ce:21:4f:f0:42:f6:e6:7b:2d:48:9b:09:2d:71:56:64:9b:ff:
        8e:b9:0a:2a:19:94:05:ab:49:88:f9:71:f0:87:90:b9:c8:58:
        9a:b8:fb:3d:11:12:5f:f7:3b:2b:f5:46:4e:ad:46:b6:75:c2:
        83:26:0d:df:d4:2a:a3:1f:80:8c:b8:dd:62:73:67:fa:f2:12:
        bf:58:99:17:8d:d3:c5:0c:b9:e3:a1:1b:e5:30:6f:17:d9:6c:
        37:e2:7c:c1:5c:df:72:f9:2d:6d:23:75:56:0c:59:26:bd:3b:
        4c:80:6f:f2:a5:20:12:65:16:2d:d3:e9:5d:2c:95:49:77:2f:
        4f:e5:b1:cd:64:1b:01:a4:62:82:ef:5b:0a:a4:f0:fc:59:af:
        d6:5d:fc:17:52:d6:14:ad:96:b3:52:9b:5f:7e:27:6a:63:e9:
        a4:45:41:78:07:0e:39:af:66:41:86:2e:e0:d1:8f:33:53:dc:
        14:6b:eb:e2:cc:df:a6:e8:a2:36:7f:c4:f0:02:01:02:4a:19:
        f2:a3:8c:3d:c1:eb:f8:18:d3:c7:41:f2:e5:d2:09:ae:77:73:
        68:ba:28:f5:7d:a7:10:a2:a9:ef:45:bc:97:a0:f6:e4:81:af:
        44:85:67:89:af:bf:99:45:21:bd:d1:f2:06:34:f0:d8:7e:f3:
        e8:99:81:e3:5f:f4:8b:2b:3a:b9:16:ec:19:9c:40:84:5f:35:
        fe:cd:66:77:62:9f:a4:8a:28:85:cc:e0:6e:8a:35:88:dc:77:
        f1:34:d7:6b:53:05:eb:08:b9:fc:9a:74:ad:90:e7:59:60:43:
        67:88:70:66:70:40:95:60:19:f5:98:2c:2e:15:aa:29:37:eb:
        52:ae:7b:8d:f5:00:49:62:c9:96:f0:2f:11:c9:52:9c:8c:16:
        03:60:96:8c:86:d2:cf:ea:d6:29:55:ef:ff:3d:ad:6c:a8:87:
        31:d5:14:27:00:5f:c8:e6:9b:ef:c8:19:0f:2c:d3:c9:56:48:
        b0:5a:fa:26:95:2d:9c:9b
-----BEGIN CERTIFICATE-----
MIIFTTCCAzWgAwIBAgIBHzANBgkqhkiG9w0BAQsFADCBoTELMAkGA1UEBhMCUlUx
GjAYBgNVBAgMEVNWRVJETE9WU0sgUkVHSU9OMRYwFAYDVQQHDA1ZRUtBVEVSSU5C
VVJHMRIwEAYDVQQKDAlpQkxPRy5QUk8xEjAQBgNVBAsMCWlCTE9HLlBSTzEVMBMG
A1UEAwwMaUJMT0cuUFJPIENBMR8wHQYJKoZIhvcNAQkBFhB2b3Jsb25AaWJsb2cu
cHJvMB4XDTIyMDUwNDA1MDA0N1oXDTIzMDUwNDA1MDA0N1owcjELMAkGA1UEBhMC
UlUxGjAYBgNVBAgMEVNWRVJETE9WU0sgUkVHSU9OMRYwFAYDVQQHDA1ZRUtBVEVS
SU5CVVJHMRIwEAYDVQQKDAlpQkxPRy5QUk8xGzAZBgNVBAMMEmtleWNsb2FrLmli
bG9nLnBybzCCASIwDQYJKoZIhvcNAQEBBQADggEPADCCAQoCggEBAJnve7xDiKnL
VFUoI7cr57XDoi4i/SJwirAG5CnAwaYnPPLDcU544iuQwnTZ/L6j2sP15ve6vbMU
eDKpom5lZ5IExeQUbvSNUzSmECJAcsVKdjP/ttb2zmboCH/A1lIf2kxx5caZOCZZ
jGEmjYmJfz9JOakb5ZzWD9ziadhW8/GlOlXaaQtB/Q3j9+0sEWq8LWl01ckUu6Ni
oQrX3jkm8537jB+WUrVSW0wfLuxqBOr+csUC/DkyO02++vFsz0ybyOBcRjUaM3lU
zBzsxol/uXblyrns+O94+4OK8tObLWxZfb6RdG/7CTvF3EftUNBE5Ez+FhXbSRNB
4WkTAbvJQQ0CAwEAAaOBvTCBujAdBgNVHQ4EFgQU1FcdYYH9BcwCbQrQkZKSMcqu
N40wHwYDVR0jBBgwFoAUj0RifoSlP/Oya8BvYCP77SoiEecwCQYDVR0TBAIwADAL
BgNVHQ8EBAMCBaAwEwYDVR0lBAwwCgYIKwYBBQUHAwEwHQYDVR0RBBYwFIISa2V5
Y2xvYWsuaWJsb2cucHJvMCwGCWCGSAGG+EIBDQQfFh1PcGVuU1NMIEdlbmVyYXRl
ZCBDZXJ0aWZpY2F0ZTANBgkqhkiG9w0BAQsFAAOCAgEAbIdfoftJhbfAaQ+kT1zR
C8fn92eq/5MG+GgbP6f21Y3+zzTdwfUy1UKW1x3uQDS5irnbcX0B6la8o3/2/xuu
R5jlm+r6Fz/7oPAufOTUThGwkF2jj3De5vMg8uIFNprvWUJT24IRPZl4J2+grFYa
AwTmI/BrsRaaDdPLWfKSziFP8EL25nstSJsJLXFWZJv/jrkKKhmUBatJiPlx8IeQ
uchYmrj7PRESX/c7K/VGTq1GtnXCgyYN39Qqox+AjLjdYnNn+vISv1iZF43TxQy5
46Eb5TBvF9lsN+J8wVzfcvktbSN1VgxZJr07TIBv8qUgEmUWLdPpXSyVSXcvT+Wx
zWQbAaRigu9bCqTw/Fmv1l38F1LWFK2Ws1KbX34namPppEVBeAcOOa9mQYYu4NGP
M1PcFGvr4szfpuiiNn/E8AIBAkoZ8qOMPcHr+BjTx0Hy5dIJrndzaLoo9X2nEKKp
70W8l6D25IGvRIVnia+/mUUhvdHyBjTw2H7z6JmB41/0iys6uRbsGZxAhF81/s1m
d2KfpIoohczgboo1iNx38TTXa1MF6wi5/Jp0rZDnWWBDZ4hwZnBAlWAZ9ZgsLhWq
KTfrUq57jfUASWLJlvAvEclSnIwWA2CWjIbSz+rWKVXv/z2tbKiHMdUUJwBfyOab
78gZDyzTyVZIsFr6JpUtnJs=
-----END CERTIFICATE-----
