Certificate:
    Data:
        Version: 3 (0x2)
        Serial Number: 18 (0x12)
        Signature Algorithm: sha256WithRSAEncryption
        Issuer: C=RU, ST=SVERDLOVSK REGION, L=YEKATERINBURG, O=iBLOG.PRO, OU=iBLOG.PRO, CN=iBLOG.PRO CA/emailAddress=vorlon@iblog.pro
        Validity
            Not Before: May  4 04:57:15 2022 GMT
            Not After : May  4 04:57:15 2023 GMT
        Subject: C=RU, ST=SVERDLOVSK REGION, L=YEKATERINBURG, O=iBLOG.PRO, CN=nexus3.iblog.pro
        Subject Public Key Info:
            Public Key Algorithm: rsaEncryption
                Public-Key: (2048 bit)
                Modulus:
                    00:cb:fe:58:83:36:c3:8a:7a:29:d2:b0:43:44:9e:
                    37:99:73:da:73:57:00:79:4f:6a:d6:14:a1:9a:91:
                    af:54:cf:05:e7:6c:99:8e:bc:3f:0c:47:12:2c:54:
                    ff:aa:c0:4a:37:bf:80:28:98:01:db:96:06:44:a7:
                    9b:d6:5b:11:a9:89:7c:55:c7:71:a9:4e:86:37:7e:
                    e4:c9:20:63:8f:29:85:f1:93:1c:6d:8b:14:17:0e:
                    ca:f6:6c:8c:c7:ef:00:7a:cd:cb:ab:15:87:ab:8a:
                    2c:76:6c:ab:f1:94:e7:48:08:ca:e3:e4:07:58:d0:
                    5a:ea:7f:29:31:a6:ca:76:66:ca:fc:88:9e:01:89:
                    b6:2d:9c:73:4b:55:a6:e0:17:e8:fd:80:21:f8:3d:
                    56:3c:ce:cd:07:bc:2a:f7:c3:3f:ff:9e:72:54:c4:
                    24:50:98:a6:d8:0d:07:a5:26:3a:79:8d:f9:42:ab:
                    87:47:bb:e7:2d:56:31:39:46:29:52:f1:c2:40:32:
                    5f:e6:ba:5d:73:2c:a8:15:c5:3e:14:f6:c3:28:0b:
                    cc:26:d3:00:c2:69:12:62:90:7c:de:4e:b5:7c:1d:
                    61:48:69:ab:30:5d:2f:05:52:dc:ff:e2:a0:66:f8:
                    7c:01:66:c0:6d:5f:a5:48:fd:3e:47:45:d4:86:d6:
                    a2:cf
                Exponent: 65537 (0x10001)
        X509v3 extensions:
            X509v3 Subject Key Identifier: 
                44:A2:2C:75:85:9B:7B:10:D1:F9:F8:37:E6:2C:1D:59:57:66:F2:A7
            X509v3 Authority Key Identifier: 
                8F:44:62:7E:84:A5:3F:F3:B2:6B:C0:6F:60:23:FB:ED:2A:22:11:E7
            X509v3 Basic Constraints: 
                CA:FALSE
            X509v3 Key Usage: 
                Digital Signature, Key Encipherment
            X509v3 Extended Key Usage: 
                TLS Web Server Authentication
            X509v3 Subject Alternative Name: 
                DNS:nexus3.iblog.pro
            Netscape Comment: 
                OpenSSL Generated Certificate
    Signature Algorithm: sha256WithRSAEncryption
    Signature Value:
        99:a8:19:9b:3d:5d:11:58:e8:60:43:ec:d9:5e:12:9d:16:12:
        f3:e6:18:05:ff:5d:44:d5:58:05:60:3d:22:dc:f0:a5:20:1e:
        ad:f4:31:55:36:80:09:0b:99:e1:aa:5a:a0:bf:0e:22:3f:95:
        d5:58:83:85:0c:c7:86:1f:51:4c:56:11:75:39:41:55:7a:7a:
        67:40:db:7e:b8:39:cf:d9:3f:ae:1f:85:9b:7b:0b:1a:f6:83:
        dd:7d:4c:8d:fd:e3:31:42:66:97:6f:00:52:61:ac:3f:03:5a:
        b0:c7:ec:19:67:5d:b8:1e:59:e8:63:54:a2:2d:c0:97:a2:d6:
        79:65:55:38:6b:45:8c:67:e5:bb:65:76:33:3c:c0:4f:a9:76:
        42:5e:2e:92:a0:7b:92:d3:51:a2:25:e0:7a:73:8b:42:7f:b2:
        eb:b3:6f:39:52:f6:47:7d:9a:da:5e:ad:9f:73:a5:ad:ce:ea:
        4c:66:d9:56:99:96:ef:12:97:eb:e9:89:71:c1:a8:c3:cb:40:
        a1:c7:a2:89:4d:3e:8c:60:3a:70:bd:ba:86:32:8d:91:0d:61:
        dc:51:46:d5:21:ff:20:34:9b:8d:33:c1:1a:40:d3:89:a6:3d:
        44:d6:98:25:e9:4e:a7:f0:a5:72:cb:86:bc:b3:1f:d2:c1:07:
        51:91:3a:7b:55:97:b2:dd:71:05:5b:7b:fa:21:4d:08:28:c4:
        e9:79:4f:0e:d1:31:af:19:53:9a:46:f3:19:33:dc:59:21:0f:
        94:6d:1c:b2:49:e3:5f:89:be:3d:ff:f5:c1:45:f6:ba:62:4c:
        3a:69:b7:28:d1:ad:ed:7b:90:08:92:7f:46:6f:d7:6e:7f:27:
        b7:a6:1a:8b:01:c3:d8:54:91:ba:91:39:0d:0a:f4:37:0b:97:
        fe:34:e7:9d:4f:ed:5e:fe:80:99:3a:6d:16:b6:22:f3:39:22:
        d7:c6:d6:71:88:77:28:27:4e:e0:d4:b4:39:3b:30:db:d6:87:
        04:7f:2e:88:c6:31:a1:5b:8b:39:c9:0c:49:8d:7a:72:25:22:
        93:6b:74:92:e8:2c:b6:ba:c7:f8:93:c0:39:76:90:37:06:78:
        bd:12:02:26:c4:86:8a:dc:21:98:06:ff:73:9d:a2:3c:0a:cb:
        c3:ce:79:46:84:5d:3f:17:a5:e1:8f:89:a7:26:da:d0:d1:50:
        2e:95:52:ed:43:ea:3a:b0:b5:29:28:58:24:47:01:5a:df:d5:
        07:74:7a:6d:c7:f2:ad:6e:dc:41:93:d9:91:a5:66:12:63:a9:
        41:55:9c:a7:fb:b5:e9:03:55:d2:62:6f:94:a6:b6:8b:66:04:
        8c:e3:50:6d:34:80:22:a3
-----BEGIN CERTIFICATE-----
MIIFSTCCAzGgAwIBAgIBEjANBgkqhkiG9w0BAQsFADCBoTELMAkGA1UEBhMCUlUx
GjAYBgNVBAgMEVNWRVJETE9WU0sgUkVHSU9OMRYwFAYDVQQHDA1ZRUtBVEVSSU5C
VVJHMRIwEAYDVQQKDAlpQkxPRy5QUk8xEjAQBgNVBAsMCWlCTE9HLlBSTzEVMBMG
A1UEAwwMaUJMT0cuUFJPIENBMR8wHQYJKoZIhvcNAQkBFhB2b3Jsb25AaWJsb2cu
cHJvMB4XDTIyMDUwNDA0NTcxNVoXDTIzMDUwNDA0NTcxNVowcDELMAkGA1UEBhMC
UlUxGjAYBgNVBAgMEVNWRVJETE9WU0sgUkVHSU9OMRYwFAYDVQQHDA1ZRUtBVEVS
SU5CVVJHMRIwEAYDVQQKDAlpQkxPRy5QUk8xGTAXBgNVBAMMEG5leHVzMy5pYmxv
Zy5wcm8wggEiMA0GCSqGSIb3DQEBAQUAA4IBDwAwggEKAoIBAQDL/liDNsOKeinS
sENEnjeZc9pzVwB5T2rWFKGaka9UzwXnbJmOvD8MRxIsVP+qwEo3v4AomAHblgZE
p5vWWxGpiXxVx3GpToY3fuTJIGOPKYXxkxxtixQXDsr2bIzH7wB6zcurFYeriix2
bKvxlOdICMrj5AdY0Frqfykxpsp2Zsr8iJ4BibYtnHNLVabgF+j9gCH4PVY8zs0H
vCr3wz//nnJUxCRQmKbYDQelJjp5jflCq4dHu+ctVjE5RilS8cJAMl/mul1zLKgV
xT4U9sMoC8wm0wDCaRJikHzeTrV8HWFIaaswXS8FUtz/4qBm+HwBZsBtX6VI/T5H
RdSG1qLPAgMBAAGjgbswgbgwHQYDVR0OBBYEFESiLHWFm3sQ0fn4N+YsHVlXZvKn
MB8GA1UdIwQYMBaAFI9EYn6EpT/zsmvAb2Aj++0qIhHnMAkGA1UdEwQCMAAwCwYD
VR0PBAQDAgWgMBMGA1UdJQQMMAoGCCsGAQUFBwMBMBsGA1UdEQQUMBKCEG5leHVz
My5pYmxvZy5wcm8wLAYJYIZIAYb4QgENBB8WHU9wZW5TU0wgR2VuZXJhdGVkIENl
cnRpZmljYXRlMA0GCSqGSIb3DQEBCwUAA4ICAQCZqBmbPV0RWOhgQ+zZXhKdFhLz
5hgF/11E1VgFYD0i3PClIB6t9DFVNoAJC5nhqlqgvw4iP5XVWIOFDMeGH1FMVhF1
OUFVenpnQNt+uDnP2T+uH4Wbewsa9oPdfUyN/eMxQmaXbwBSYaw/A1qwx+wZZ124
HlnoY1SiLcCXotZ5ZVU4a0WMZ+W7ZXYzPMBPqXZCXi6SoHuS01GiJeB6c4tCf7Lr
s285UvZHfZraXq2fc6WtzupMZtlWmZbvEpfr6YlxwajDy0Chx6KJTT6MYDpwvbqG
Mo2RDWHcUUbVIf8gNJuNM8EaQNOJpj1E1pgl6U6n8KVyy4a8sx/SwQdRkTp7VZey
3XEFW3v6IU0IKMTpeU8O0TGvGVOaRvMZM9xZIQ+UbRyySeNfib49//XBRfa6Ykw6
abco0a3te5AIkn9Gb9dufye3phqLAcPYVJG6kTkNCvQ3C5f+NOedT+1e/oCZOm0W
tiLzOSLXxtZxiHcoJ07g1LQ5OzDb1ocEfy6IxjGhW4s5yQxJjXpyJSKTa3SS6Cy2
usf4k8A5dpA3Bni9EgImxIaK3CGYBv9znaI8CsvDznlGhF0/F6Xhj4mnJtrQ0VAu
lVLtQ+o6sLUpKFgkRwFa39UHdHptx/KtbtxBk9mRpWYSY6lBVZyn+7XpA1XSYm+U
praLZgSM41BtNIAiow==
-----END CERTIFICATE-----
