Certificate:
    Data:
        Version: 3 (0x2)
        Serial Number: 19 (0x13)
        Signature Algorithm: sha256WithRSAEncryption
        Issuer: C=RU, ST=SVERDLOVSK REGION, L=YEKATERINBURG, O=iBLOG.PRO, OU=iBLOG.PRO, CN=iBLOG.PRO CA/emailAddress=vorlon@iblog.pro
        Validity
            Not Before: May  4 04:57:30 2022 GMT
            Not After : May  4 04:57:30 2023 GMT
        Subject: C=RU, ST=SVERDLOVSK REGION, L=YEKATERINBURG, O=iBLOG.PRO, CN=nexus3-quay-io.iblog.pro
        Subject Public Key Info:
            Public Key Algorithm: rsaEncryption
                Public-Key: (2048 bit)
                Modulus:
                    00:e4:4b:df:0d:2e:16:63:96:0c:33:0d:80:c1:2f:
                    6c:17:4c:65:0c:8f:54:77:2e:85:4b:a8:b3:40:2d:
                    24:c3:71:fa:1d:2a:5c:23:70:55:ec:65:18:30:de:
                    f7:28:6d:8b:33:e5:76:be:7d:1f:78:01:bb:6f:eb:
                    b9:ef:5c:47:90:ba:0b:27:2c:4f:d4:46:5f:d1:67:
                    47:2d:24:c8:b6:9e:de:f4:f9:c6:eb:0c:e2:1c:0b:
                    a3:3b:e1:4e:91:c9:b7:fc:c8:65:ef:b8:f9:bb:2d:
                    5c:da:bc:e2:5d:58:0a:8e:7b:77:ee:50:53:7b:9d:
                    fc:88:ae:2d:cc:a3:6c:d7:03:15:6d:27:38:bf:d9:
                    52:0d:07:55:9e:0a:c1:00:d5:3c:b7:2b:d5:4b:46:
                    31:13:24:38:2a:0d:e0:37:01:53:5e:5b:92:18:d5:
                    37:b9:33:40:9f:86:bb:e8:80:cd:d0:20:3b:8a:8e:
                    5f:95:fc:0f:7b:20:9e:10:dc:02:cf:67:6b:55:4e:
                    02:cd:c3:58:83:d9:d9:c9:00:98:a3:72:c4:46:86:
                    b8:a8:61:ba:1e:ca:21:a5:26:22:01:7d:8f:a6:ce:
                    56:f7:55:3c:02:50:64:8a:f9:b1:93:04:5a:32:ad:
                    ef:16:e1:8d:61:a1:3f:03:a2:48:5f:72:09:ef:95:
                    db:d7
                Exponent: 65537 (0x10001)
        X509v3 extensions:
            X509v3 Subject Key Identifier: 
                D5:5E:08:44:B4:79:2B:30:14:77:6F:69:3E:02:56:76:33:12:B6:82
            X509v3 Authority Key Identifier: 
                8F:44:62:7E:84:A5:3F:F3:B2:6B:C0:6F:60:23:FB:ED:2A:22:11:E7
            X509v3 Basic Constraints: 
                CA:FALSE
            X509v3 Key Usage: 
                Digital Signature, Key Encipherment
            X509v3 Extended Key Usage: 
                TLS Web Server Authentication
            X509v3 Subject Alternative Name: 
                DNS:nexus3-quay-io.iblog.pro
            Netscape Comment: 
                OpenSSL Generated Certificate
    Signature Algorithm: sha256WithRSAEncryption
    Signature Value:
        7c:62:04:e6:e8:6c:e3:92:68:e7:f1:77:74:90:1b:50:4d:f5:
        db:19:f7:5a:72:19:38:dc:f2:72:0c:0d:22:b6:c1:c9:4f:cb:
        28:dd:9b:e1:94:80:fc:d1:9f:29:5e:8e:0d:20:88:fa:f5:03:
        b5:fc:94:90:4f:95:52:2a:60:b8:d3:83:79:cf:c0:f3:da:0d:
        81:f2:af:1d:c2:83:64:61:ae:53:7d:c9:0f:6d:39:a5:c1:44:
        67:4c:97:78:05:52:40:85:cf:4e:e1:e2:b2:7f:38:af:86:6a:
        1a:0a:49:bf:94:b3:52:dd:c3:6b:6f:7b:28:af:d7:98:65:3b:
        28:45:12:ea:ff:1f:87:4b:67:5c:85:57:ba:e6:62:77:52:56:
        30:7b:f3:f0:ce:55:4b:85:e6:0f:14:cb:a8:33:03:21:e4:2e:
        6f:eb:6b:4a:7a:43:da:85:2e:f6:b2:1f:d7:46:e7:2e:cb:1c:
        7a:2e:1d:d9:6e:b4:df:0e:f5:50:6c:2d:05:e7:d6:25:71:3c:
        ac:c4:40:08:be:4d:fa:d4:9b:3a:48:dc:58:b1:33:b4:56:25:
        09:6f:74:87:e4:8c:f5:59:44:a3:cb:10:0c:4e:8a:63:cc:96:
        b5:f4:b9:8f:62:67:ef:1d:d0:57:d8:4e:cc:9b:b7:48:13:1f:
        a8:e9:f9:03:d0:42:03:3e:bb:6c:8f:84:f2:63:34:f9:8e:ca:
        54:1e:9a:ca:85:79:2c:6d:96:a5:b4:3d:27:b6:c0:a2:1e:69:
        60:52:37:e4:bb:e4:08:96:a2:7b:da:ce:c8:da:91:0c:03:a7:
        f1:5b:85:22:42:72:fa:a4:95:00:2f:b9:3c:cf:ff:23:36:31:
        79:5c:2b:c0:c1:20:c4:d3:a2:a0:63:33:d8:7c:66:a4:38:07:
        ad:ba:a5:8d:68:43:f1:9c:25:12:aa:6a:0a:7e:dc:f8:61:9f:
        bc:4f:44:f4:21:60:fa:64:17:7f:0f:d2:86:52:05:5e:59:1a:
        08:4b:ef:fc:c6:3c:09:14:4b:d0:3b:1c:f8:cf:cf:79:99:c2:
        74:a8:f4:fa:6c:39:ce:4a:14:7d:35:86:fb:89:e0:82:8f:b4:
        a5:6a:26:a0:82:b3:7b:c4:db:28:0b:7d:a5:67:bc:02:7b:d2:
        df:5f:fb:6d:06:12:8f:c1:a5:33:2d:17:9b:12:b9:65:80:fc:
        a9:72:10:84:20:a4:10:0a:e1:52:69:97:78:20:9c:bb:04:2d:
        4c:3b:cd:7e:42:b0:87:da:9a:88:d1:e1:b6:47:9d:62:7f:d0:
        cd:43:80:06:c0:5f:c2:8e:a9:99:89:5e:f2:a9:5d:c5:c2:7e:
        b7:52:62:20:f4:44:3d:17
-----BEGIN CERTIFICATE-----
MIIFWTCCA0GgAwIBAgIBEzANBgkqhkiG9w0BAQsFADCBoTELMAkGA1UEBhMCUlUx
GjAYBgNVBAgMEVNWRVJETE9WU0sgUkVHSU9OMRYwFAYDVQQHDA1ZRUtBVEVSSU5C
VVJHMRIwEAYDVQQKDAlpQkxPRy5QUk8xEjAQBgNVBAsMCWlCTE9HLlBSTzEVMBMG
A1UEAwwMaUJMT0cuUFJPIENBMR8wHQYJKoZIhvcNAQkBFhB2b3Jsb25AaWJsb2cu
cHJvMB4XDTIyMDUwNDA0NTczMFoXDTIzMDUwNDA0NTczMFoweDELMAkGA1UEBhMC
UlUxGjAYBgNVBAgMEVNWRVJETE9WU0sgUkVHSU9OMRYwFAYDVQQHDA1ZRUtBVEVS
SU5CVVJHMRIwEAYDVQQKDAlpQkxPRy5QUk8xITAfBgNVBAMMGG5leHVzMy1xdWF5
LWlvLmlibG9nLnBybzCCASIwDQYJKoZIhvcNAQEBBQADggEPADCCAQoCggEBAORL
3w0uFmOWDDMNgMEvbBdMZQyPVHcuhUuos0AtJMNx+h0qXCNwVexlGDDe9yhtizPl
dr59H3gBu2/rue9cR5C6CycsT9RGX9FnRy0kyLae3vT5xusM4hwLozvhTpHJt/zI
Ze+4+bstXNq84l1YCo57d+5QU3ud/IiuLcyjbNcDFW0nOL/ZUg0HVZ4KwQDVPLcr
1UtGMRMkOCoN4DcBU15bkhjVN7kzQJ+Gu+iAzdAgO4qOX5X8D3sgnhDcAs9na1VO
As3DWIPZ2ckAmKNyxEaGuKhhuh7KIaUmIgF9j6bOVvdVPAJQZIr5sZMEWjKt7xbh
jWGhPwOiSF9yCe+V29cCAwEAAaOBwzCBwDAdBgNVHQ4EFgQU1V4IRLR5KzAUd29p
PgJWdjMStoIwHwYDVR0jBBgwFoAUj0RifoSlP/Oya8BvYCP77SoiEecwCQYDVR0T
BAIwADALBgNVHQ8EBAMCBaAwEwYDVR0lBAwwCgYIKwYBBQUHAwEwIwYDVR0RBBww
GoIYbmV4dXMzLXF1YXktaW8uaWJsb2cucHJvMCwGCWCGSAGG+EIBDQQfFh1PcGVu
U1NMIEdlbmVyYXRlZCBDZXJ0aWZpY2F0ZTANBgkqhkiG9w0BAQsFAAOCAgEAfGIE
5uhs45Jo5/F3dJAbUE312xn3WnIZONzycgwNIrbByU/LKN2b4ZSA/NGfKV6ODSCI
+vUDtfyUkE+VUipguNODec/A89oNgfKvHcKDZGGuU33JD205pcFEZ0yXeAVSQIXP
TuHisn84r4ZqGgpJv5SzUt3Da297KK/XmGU7KEUS6v8fh0tnXIVXuuZid1JWMHvz
8M5VS4XmDxTLqDMDIeQub+trSnpD2oUu9rIf10bnLsscei4d2W603w71UGwtBefW
JXE8rMRACL5N+tSbOkjcWLEztFYlCW90h+SM9VlEo8sQDE6KY8yWtfS5j2Jn7x3Q
V9hOzJu3SBMfqOn5A9BCAz67bI+E8mM0+Y7KVB6ayoV5LG2WpbQ9J7bAoh5pYFI3
5LvkCJaie9rOyNqRDAOn8VuFIkJy+qSVAC+5PM//IzYxeVwrwMEgxNOioGMz2Hxm
pDgHrbqljWhD8ZwlEqpqCn7c+GGfvE9E9CFg+mQXfw/ShlIFXlkaCEvv/MY8CRRL
0Dsc+M/PeZnCdKj0+mw5zkoUfTWG+4nggo+0pWomoIKze8TbKAt9pWe8AnvS31/7
bQYSj8GlMy0XmxK5ZYD8qXIQhCCkEArhUmmXeCCcuwQtTDvNfkKwh9qaiNHhtked
Yn/QzUOABsBfwo6pmYle8qldxcJ+t1JiIPREPRc=
-----END CERTIFICATE-----
