Certificate:
    Data:
        Version: 3 (0x2)
        Serial Number: 29 (0x1d)
        Signature Algorithm: sha256WithRSAEncryption
        Issuer: C=RU, ST=SVERDLOVSK REGION, L=YEKATERINBURG, O=iBLOG.PRO, OU=iBLOG.PRO, CN=iBLOG.PRO CA/emailAddress=vorlon@iblog.pro
        Validity
            Not Before: May  4 05:00:22 2022 GMT
            Not After : May  4 05:00:22 2023 GMT
        Subject: C=RU, ST=SVERDLOVSK REGION, L=YEKATERINBURG, O=iBLOG.PRO, CN=uiregistry.iblog.pro
        Subject Public Key Info:
            Public Key Algorithm: rsaEncryption
                Public-Key: (2048 bit)
                Modulus:
                    00:a6:26:5b:1a:38:77:90:ba:47:21:a7:00:e0:a2:
                    cb:78:36:5f:d4:bc:88:98:44:35:72:8a:a1:86:5d:
                    52:56:95:c0:d7:b0:52:c7:97:2e:c1:91:bd:8c:cf:
                    55:0e:78:21:57:4c:97:25:47:05:3f:0e:37:be:ec:
                    d7:9d:b0:9c:a6:12:de:18:5f:6a:79:da:6e:13:6a:
                    8a:da:49:48:08:41:37:eb:41:6f:98:d5:92:48:12:
                    1b:9b:a0:51:e4:e7:e9:2f:16:e1:17:ca:8f:e6:2c:
                    ce:e3:58:8d:8c:f6:1c:bc:ce:48:d5:90:d3:ae:a8:
                    02:68:23:b5:e0:35:66:5e:bc:f4:ed:7b:4a:18:c6:
                    95:65:76:c0:24:d0:24:a6:37:3f:71:c9:5a:50:1e:
                    84:99:60:d0:21:93:cc:8d:a3:9e:89:82:60:af:19:
                    5d:b9:d1:68:a1:27:90:55:40:6d:c4:fb:ac:6e:27:
                    42:f4:98:02:69:ee:fc:a4:d2:c4:c1:14:89:61:fc:
                    56:33:12:bc:d0:b8:ac:9c:5f:3b:9c:f9:d5:59:19:
                    c4:70:53:e1:3d:3e:f2:86:ee:02:6d:45:12:c6:eb:
                    82:f4:b8:a5:1f:6f:39:8f:f7:d7:ac:67:72:1c:89:
                    92:5a:20:8a:b5:29:1f:01:39:65:fd:3c:30:68:1f:
                    74:e7
                Exponent: 65537 (0x10001)
        X509v3 extensions:
            X509v3 Subject Key Identifier: 
                53:DA:C7:F0:27:A6:44:BC:7B:3F:93:DE:CB:FB:34:58:65:86:BA:08
            X509v3 Authority Key Identifier: 
                8F:44:62:7E:84:A5:3F:F3:B2:6B:C0:6F:60:23:FB:ED:2A:22:11:E7
            X509v3 Basic Constraints: 
                CA:FALSE
            X509v3 Key Usage: 
                Digital Signature, Key Encipherment
            X509v3 Extended Key Usage: 
                TLS Web Server Authentication
            X509v3 Subject Alternative Name: 
                DNS:uiregistry.iblog.pro
            Netscape Comment: 
                OpenSSL Generated Certificate
    Signature Algorithm: sha256WithRSAEncryption
    Signature Value:
        6b:75:28:db:0e:05:75:d1:ac:74:3d:4d:6b:10:6b:01:2a:aa:
        c0:a4:d6:d5:ae:1f:10:ab:c1:2a:2a:9b:6f:55:fb:6e:f2:a6:
        bd:72:dd:d8:ec:47:4d:56:bd:ae:91:6e:9c:3d:70:28:0b:5f:
        f4:d2:3c:b7:fd:9a:32:1d:31:88:17:ee:39:a2:f0:ed:20:36:
        e9:4a:a3:dc:97:fd:3d:24:01:94:51:6d:60:86:df:4b:99:f4:
        c0:06:5d:ab:c5:8b:0a:75:3d:2d:5d:fd:c8:43:19:c1:46:78:
        91:2a:9d:c8:66:8d:11:90:90:20:97:cb:0c:ea:3a:ba:5c:86:
        bb:f1:1e:d1:41:c9:39:da:95:27:18:77:e5:89:65:4a:9a:2b:
        62:24:7e:22:3a:6e:3c:ef:56:d7:0b:8b:cf:5f:5d:e4:ff:4f:
        f0:2e:40:22:f2:03:2b:0b:8a:aa:94:8b:57:b4:32:44:21:53:
        9b:f9:e6:f7:c8:e7:64:96:bb:9f:f7:8b:13:64:3e:73:47:0a:
        60:76:30:22:d3:1a:ee:f7:68:ab:96:28:70:3a:f5:dd:2b:04:
        39:81:dc:d5:40:54:4a:6f:00:02:a3:86:0d:ac:9b:bf:88:b8:
        46:d3:d2:32:4a:50:40:72:6a:21:36:39:68:26:7b:02:bf:82:
        03:0b:1f:9e:70:be:88:35:b0:77:f6:5f:6f:c5:78:b3:b5:20:
        dc:f0:2f:1a:d6:04:09:69:21:ff:44:3c:fd:c7:9a:69:40:3d:
        7c:c3:21:28:ff:e1:6d:7d:82:c6:cd:58:ee:a6:b7:7b:3c:96:
        b9:fd:66:be:4f:84:08:0e:0c:71:39:09:8b:d3:f1:3a:11:2e:
        a5:c7:83:fc:e1:eb:d8:b5:7e:10:4a:3a:e4:9e:d0:45:1e:c0:
        b7:6e:96:c8:aa:45:0a:7c:ac:dd:2a:0f:a7:ba:2a:58:08:35:
        ba:6a:d5:37:b0:fb:5d:42:bd:36:3e:ba:4f:3c:14:2d:07:3c:
        bc:06:24:8b:2f:a2:80:67:6c:10:aa:cb:c7:d0:c9:c9:9e:04:
        6c:35:8b:75:fe:ec:01:6b:8f:d9:a0:bc:3d:9e:5d:00:9c:bb:
        0f:f2:2c:b3:87:1e:28:45:dd:3d:2e:4d:17:2d:02:16:d4:77:
        39:dd:38:73:2e:ad:9d:e8:6e:89:09:9f:b9:ec:7a:7d:88:53:
        63:f3:20:8e:94:9f:30:63:68:63:74:82:43:41:07:14:51:6a:
        32:51:62:3a:ad:35:76:d8:2d:58:da:5c:09:43:ee:5b:55:1b:
        8f:40:a6:cf:4c:7a:7a:57:77:71:6e:1f:bc:d1:5d:17:d9:ec:
        08:8f:94:c1:4b:b4:14:d6
-----BEGIN CERTIFICATE-----
MIIFUTCCAzmgAwIBAgIBHTANBgkqhkiG9w0BAQsFADCBoTELMAkGA1UEBhMCUlUx
GjAYBgNVBAgMEVNWRVJETE9WU0sgUkVHSU9OMRYwFAYDVQQHDA1ZRUtBVEVSSU5C
VVJHMRIwEAYDVQQKDAlpQkxPRy5QUk8xEjAQBgNVBAsMCWlCTE9HLlBSTzEVMBMG
A1UEAwwMaUJMT0cuUFJPIENBMR8wHQYJKoZIhvcNAQkBFhB2b3Jsb25AaWJsb2cu
cHJvMB4XDTIyMDUwNDA1MDAyMloXDTIzMDUwNDA1MDAyMlowdDELMAkGA1UEBhMC
UlUxGjAYBgNVBAgMEVNWRVJETE9WU0sgUkVHSU9OMRYwFAYDVQQHDA1ZRUtBVEVS
SU5CVVJHMRIwEAYDVQQKDAlpQkxPRy5QUk8xHTAbBgNVBAMMFHVpcmVnaXN0cnku
aWJsb2cucHJvMIIBIjANBgkqhkiG9w0BAQEFAAOCAQ8AMIIBCgKCAQEApiZbGjh3
kLpHIacA4KLLeDZf1LyImEQ1coqhhl1SVpXA17BSx5cuwZG9jM9VDnghV0yXJUcF
Pw43vuzXnbCcphLeGF9qedpuE2qK2klICEE360FvmNWSSBIbm6BR5OfpLxbhF8qP
5izO41iNjPYcvM5I1ZDTrqgCaCO14DVmXrz07XtKGMaVZXbAJNAkpjc/cclaUB6E
mWDQIZPMjaOeiYJgrxldudFooSeQVUBtxPusbidC9JgCae78pNLEwRSJYfxWMxK8
0LisnF87nPnVWRnEcFPhPT7yhu4CbUUSxuuC9LilH285j/fXrGdyHImSWiCKtSkf
ATll/TwwaB905wIDAQABo4G/MIG8MB0GA1UdDgQWBBRT2sfwJ6ZEvHs/k97L+zRY
ZYa6CDAfBgNVHSMEGDAWgBSPRGJ+hKU/87JrwG9gI/vtKiIR5zAJBgNVHRMEAjAA
MAsGA1UdDwQEAwIFoDATBgNVHSUEDDAKBggrBgEFBQcDATAfBgNVHREEGDAWghR1
aXJlZ2lzdHJ5LmlibG9nLnBybzAsBglghkgBhvhCAQ0EHxYdT3BlblNTTCBHZW5l
cmF0ZWQgQ2VydGlmaWNhdGUwDQYJKoZIhvcNAQELBQADggIBAGt1KNsOBXXRrHQ9
TWsQawEqqsCk1tWuHxCrwSoqm29V+27ypr1y3djsR01Wva6Rbpw9cCgLX/TSPLf9
mjIdMYgX7jmi8O0gNulKo9yX/T0kAZRRbWCG30uZ9MAGXavFiwp1PS1d/chDGcFG
eJEqnchmjRGQkCCXywzqOrpchrvxHtFByTnalScYd+WJZUqaK2IkfiI6bjzvVtcL
i89fXeT/T/AuQCLyAysLiqqUi1e0MkQhU5v55vfI52SWu5/3ixNkPnNHCmB2MCLT
Gu73aKuWKHA69d0rBDmB3NVAVEpvAAKjhg2sm7+IuEbT0jJKUEByaiE2OWgmewK/
ggMLH55wvog1sHf2X2/FeLO1INzwLxrWBAlpIf9EPP3HmmlAPXzDISj/4W19gsbN
WO6mt3s8lrn9Zr5PhAgODHE5CYvT8ToRLqXHg/zh69i1fhBKOuSe0EUewLdulsiq
RQp8rN0qD6e6KlgINbpq1Tew+11CvTY+uk88FC0HPLwGJIsvooBnbBCqy8fQycme
BGw1i3X+7AFrj9mgvD2eXQCcuw/yLLOHHihF3T0uTRctAhbUdzndOHMurZ3obokJ
n7nsen2IU2PzII6UnzBjaGN0gkNBBxRRajJRYjqtNXbYLVjaXAlD7ltVG49Aps9M
enpXd3FuH7zRXRfZ7AiPlMFLtBTW
-----END CERTIFICATE-----
