Certificate:
    Data:
        Version: 3 (0x2)
        Serial Number: 27 (0x1b)
        Signature Algorithm: sha256WithRSAEncryption
        Issuer: C=RU, ST=SVERDLOVSK REGION, L=YEKATERINBURG, O=iBLOG.PRO, OU=iBLOG.PRO, CN=iBLOG.PRO CA/emailAddress=vorlon@iblog.pro
        Validity
            Not Before: May  4 04:59:56 2022 GMT
            Not After : May  4 04:59:56 2023 GMT
        Subject: C=RU, ST=SVERDLOVSK REGION, L=YEKATERINBURG, O=iBLOG.PRO, CN=minio.iblog.pro
        Subject Public Key Info:
            Public Key Algorithm: rsaEncryption
                Public-Key: (2048 bit)
                Modulus:
                    00:c5:10:7c:2e:c2:3d:65:61:df:21:55:07:39:ef:
                    ed:b2:37:c0:f8:af:87:e9:44:11:f1:d9:c3:9e:dc:
                    07:0a:ac:f4:10:63:00:16:04:c5:29:64:12:12:83:
                    ed:fb:4a:40:8e:b2:79:15:87:7e:1e:3d:6e:c0:26:
                    da:9d:f2:75:bc:ca:c6:a1:96:03:a4:b5:20:b8:75:
                    9c:c9:96:9b:e9:d6:c9:88:20:0d:d2:3d:32:19:bf:
                    1b:50:62:9c:18:d6:0a:ab:3d:01:6e:e1:92:d8:16:
                    2b:6b:e0:5e:dc:3a:31:13:75:65:e8:27:42:96:24:
                    9e:b0:53:f3:6e:4b:e0:7d:80:63:3f:a1:09:cf:98:
                    f4:a5:45:a8:6d:76:1f:70:db:79:24:d1:b0:3a:50:
                    52:cd:55:a9:ac:be:69:ea:97:be:a3:07:67:0c:8b:
                    53:18:ee:eb:e7:15:5b:24:b3:24:2f:54:26:57:e5:
                    02:40:ff:8f:ff:69:f8:82:56:95:e6:66:6c:49:02:
                    96:aa:5a:e4:4b:41:95:13:3a:ba:07:50:e1:07:13:
                    67:1b:6c:16:7d:ab:19:12:fc:b1:0a:05:fd:fb:d8:
                    08:1e:32:db:a3:87:d4:15:e4:10:d8:26:5e:f6:e4:
                    d1:98:15:7c:55:e1:95:a8:13:86:dd:79:b3:47:c4:
                    12:75
                Exponent: 65537 (0x10001)
        X509v3 extensions:
            X509v3 Subject Key Identifier: 
                29:6F:BC:53:80:DF:41:FD:EB:E3:05:84:79:AC:33:D3:92:15:18:80
            X509v3 Authority Key Identifier: 
                8F:44:62:7E:84:A5:3F:F3:B2:6B:C0:6F:60:23:FB:ED:2A:22:11:E7
            X509v3 Basic Constraints: 
                CA:FALSE
            X509v3 Key Usage: 
                Digital Signature, Key Encipherment
            X509v3 Extended Key Usage: 
                TLS Web Server Authentication
            X509v3 Subject Alternative Name: 
                DNS:minio.iblog.pro
            Netscape Comment: 
                OpenSSL Generated Certificate
    Signature Algorithm: sha256WithRSAEncryption
    Signature Value:
        2f:28:73:29:84:d1:02:06:9f:15:db:53:40:15:53:f1:de:cc:
        1d:d7:0b:4c:b8:e9:b2:b6:4f:22:4d:e6:05:5c:1e:44:4f:cc:
        03:ce:cd:58:ed:b2:fe:b7:a9:1b:d8:9a:9a:2a:4c:9e:c4:05:
        08:d7:36:ab:dc:6f:98:89:75:35:d0:19:2d:33:4c:1c:47:79:
        bf:77:95:7d:8f:05:59:50:2e:0d:be:52:89:fa:02:a2:6e:4e:
        63:f6:03:5c:ed:df:9c:58:ee:6d:ef:8b:f8:b6:af:9d:f8:d8:
        77:bd:84:a5:d0:17:15:9f:33:0c:73:af:f2:61:08:cc:98:e1:
        76:ea:ef:76:20:98:bc:00:60:c0:a8:b7:f3:76:31:27:01:e2:
        f9:28:cc:32:0b:cf:2e:b7:2e:40:65:1b:2d:56:31:b7:02:d1:
        6a:3a:41:b7:4e:95:53:4b:6d:b4:86:42:4d:da:04:61:5f:bf:
        e1:1c:af:7b:d4:0e:63:1b:c3:c0:92:4b:1b:6f:3f:e9:08:96:
        3f:8e:b6:94:38:4b:6a:15:7e:ab:e3:d1:27:9a:fd:6e:f6:33:
        1a:2a:1e:49:bf:d8:99:97:2e:83:b7:0f:e6:06:5a:1f:b7:c6:
        d2:33:49:df:d8:8a:5e:72:0e:aa:1c:85:1e:00:34:6a:18:81:
        88:15:d9:74:bb:b0:79:21:90:29:88:e6:04:e4:87:8e:cd:3e:
        16:4a:71:bf:71:1a:25:02:b4:3d:c8:aa:d2:54:96:74:76:00:
        96:a8:b5:2c:a6:d2:4a:0f:09:b6:de:9c:3e:b4:19:ee:29:b2:
        08:32:6d:94:d0:bd:a8:3c:1c:67:3f:41:da:1a:3d:07:f4:b4:
        9d:2f:d7:79:c2:7d:64:b1:e6:1b:f2:eb:dc:fb:83:59:87:18:
        5f:58:b3:9c:0d:97:51:a6:19:15:6c:06:b1:68:53:75:b9:71:
        a4:8f:30:08:b6:0b:6b:e9:40:cb:46:ef:4a:6c:3d:b4:e6:06:
        c7:76:c8:70:9b:58:bc:3d:01:30:b7:0f:54:43:64:e7:76:15:
        20:89:89:88:5a:0b:61:e7:17:8d:37:2c:63:31:6b:9d:43:13:
        82:39:3c:d4:4b:d1:7e:d5:4e:2d:6e:2a:0c:38:29:63:46:da:
        8b:55:13:59:1f:bb:26:26:57:ff:74:0b:ab:e3:71:75:54:6d:
        c0:97:dd:d8:98:aa:fe:f8:98:f3:61:55:55:c1:94:aa:90:87:
        42:0e:72:57:db:90:c3:5a:56:62:e3:16:07:6f:c9:86:cb:82:
        1f:b9:d1:dd:71:d2:cd:79:54:fa:cc:96:74:c4:b2:81:ea:c4:
        2f:36:89:84:6b:00:71:ef
-----BEGIN CERTIFICATE-----
MIIFRzCCAy+gAwIBAgIBGzANBgkqhkiG9w0BAQsFADCBoTELMAkGA1UEBhMCUlUx
GjAYBgNVBAgMEVNWRVJETE9WU0sgUkVHSU9OMRYwFAYDVQQHDA1ZRUtBVEVSSU5C
VVJHMRIwEAYDVQQKDAlpQkxPRy5QUk8xEjAQBgNVBAsMCWlCTE9HLlBSTzEVMBMG
A1UEAwwMaUJMT0cuUFJPIENBMR8wHQYJKoZIhvcNAQkBFhB2b3Jsb25AaWJsb2cu
cHJvMB4XDTIyMDUwNDA0NTk1NloXDTIzMDUwNDA0NTk1NlowbzELMAkGA1UEBhMC
UlUxGjAYBgNVBAgMEVNWRVJETE9WU0sgUkVHSU9OMRYwFAYDVQQHDA1ZRUtBVEVS
SU5CVVJHMRIwEAYDVQQKDAlpQkxPRy5QUk8xGDAWBgNVBAMMD21pbmlvLmlibG9n
LnBybzCCASIwDQYJKoZIhvcNAQEBBQADggEPADCCAQoCggEBAMUQfC7CPWVh3yFV
Bznv7bI3wPivh+lEEfHZw57cBwqs9BBjABYExSlkEhKD7ftKQI6yeRWHfh49bsAm
2p3ydbzKxqGWA6S1ILh1nMmWm+nWyYggDdI9Mhm/G1BinBjWCqs9AW7hktgWK2vg
Xtw6MRN1ZegnQpYknrBT825L4H2AYz+hCc+Y9KVFqG12H3DbeSTRsDpQUs1Vqay+
aeqXvqMHZwyLUxju6+cVWySzJC9UJlflAkD/j/9p+IJWleZmbEkClqpa5EtBlRM6
ugdQ4QcTZxtsFn2rGRL8sQoF/fvYCB4y26OH1BXkENgmXvbk0ZgVfFXhlagTht15
s0fEEnUCAwEAAaOBujCBtzAdBgNVHQ4EFgQUKW+8U4DfQf3r4wWEeawz05IVGIAw
HwYDVR0jBBgwFoAUj0RifoSlP/Oya8BvYCP77SoiEecwCQYDVR0TBAIwADALBgNV
HQ8EBAMCBaAwEwYDVR0lBAwwCgYIKwYBBQUHAwEwGgYDVR0RBBMwEYIPbWluaW8u
aWJsb2cucHJvMCwGCWCGSAGG+EIBDQQfFh1PcGVuU1NMIEdlbmVyYXRlZCBDZXJ0
aWZpY2F0ZTANBgkqhkiG9w0BAQsFAAOCAgEALyhzKYTRAgafFdtTQBVT8d7MHdcL
TLjpsrZPIk3mBVweRE/MA87NWO2y/repG9iamipMnsQFCNc2q9xvmIl1NdAZLTNM
HEd5v3eVfY8FWVAuDb5SifoCom5OY/YDXO3fnFjube+L+LavnfjYd72EpdAXFZ8z
DHOv8mEIzJjhdurvdiCYvABgwKi383YxJwHi+SjMMgvPLrcuQGUbLVYxtwLRajpB
t06VU0tttIZCTdoEYV+/4Ryve9QOYxvDwJJLG28/6QiWP462lDhLahV+q+PRJ5r9
bvYzGioeSb/YmZcug7cP5gZaH7fG0jNJ39iKXnIOqhyFHgA0ahiBiBXZdLuweSGQ
KYjmBOSHjs0+Fkpxv3EaJQK0Pciq0lSWdHYAlqi1LKbSSg8Jtt6cPrQZ7imyCDJt
lNC9qDwcZz9B2ho9B/S0nS/XecJ9ZLHmG/Lr3PuDWYcYX1iznA2XUaYZFWwGsWhT
dblxpI8wCLYLa+lAy0bvSmw9tOYGx3bIcJtYvD0BMLcPVENk53YVIImJiFoLYecX
jTcsYzFrnUMTgjk81EvRftVOLW4qDDgpY0bai1UTWR+7JiZX/3QLq+NxdVRtwJfd
2Jiq/viY82FVVcGUqpCHQg5yV9uQw1pWYuMWB2/JhsuCH7nR3XHSzXlU+syWdMSy
gerELzaJhGsAce8=
-----END CERTIFICATE-----
