Certificate:
    Data:
        Version: 3 (0x2)
        Serial Number: 24 (0x18)
        Signature Algorithm: sha256WithRSAEncryption
        Issuer: C=RU, ST=SVERDLOVSK REGION, L=YEKATERINBURG, O=iBLOG.PRO, OU=iBLOG.PRO, CN=iBLOG.PRO CA/emailAddress=vorlon@iblog.pro
        Validity
            Not Before: May  4 04:59:17 2022 GMT
            Not After : May  4 04:59:17 2023 GMT
        Subject: C=RU, ST=SVERDLOVSK REGION, L=YEKATERINBURG, O=iBLOG.PRO, CN=gitlab.iblog.pro
        Subject Public Key Info:
            Public Key Algorithm: rsaEncryption
                Public-Key: (2048 bit)
                Modulus:
                    00:8b:97:87:d7:84:cd:ba:be:e1:cb:60:aa:2c:05:
                    85:17:91:0e:71:aa:b2:a4:cd:d3:2b:ba:78:61:27:
                    30:58:0c:8c:b4:cb:9c:0f:84:49:fb:c1:37:c2:50:
                    40:53:6b:a1:db:92:35:de:74:52:6a:14:56:b8:8b:
                    f1:06:94:40:41:40:78:17:c3:c7:7d:f7:4f:8a:5a:
                    2a:09:99:76:f8:c2:f6:4f:6b:96:d3:e8:fc:4c:15:
                    56:e2:0c:e2:ba:8c:86:d4:1c:1d:01:1f:69:22:b3:
                    e7:bc:73:37:0d:c2:b1:3a:e9:6f:3a:5b:ef:51:27:
                    6a:6b:89:04:9e:b8:57:3e:8b:9d:47:e1:12:7c:dd:
                    d0:d7:82:3b:9b:85:7e:6b:80:1d:02:e5:ab:e8:5e:
                    86:38:2e:61:2c:1f:44:31:76:8d:d8:de:8c:fd:b8:
                    4c:da:2f:32:ca:2d:7f:ef:10:0f:e6:82:53:d4:39:
                    31:df:0a:5c:13:56:d4:e5:a9:e1:53:7b:7d:fe:37:
                    d6:4c:9e:94:57:5f:61:fe:a3:f9:c2:b7:bb:68:ba:
                    55:9b:2f:db:10:38:6c:fb:d9:6e:0f:7b:d9:ca:e8:
                    7c:7f:23:0b:c1:a3:ed:f4:7d:73:0e:1d:c4:28:9a:
                    92:d5:fc:6a:cf:cf:bf:68:9d:91:b7:b1:88:98:00:
                    85:2b
                Exponent: 65537 (0x10001)
        X509v3 extensions:
            X509v3 Subject Key Identifier: 
                C7:DC:7C:12:B1:6D:63:88:8A:0C:60:7C:11:77:87:94:4B:98:AD:FC
            X509v3 Authority Key Identifier: 
                8F:44:62:7E:84:A5:3F:F3:B2:6B:C0:6F:60:23:FB:ED:2A:22:11:E7
            X509v3 Basic Constraints: 
                CA:FALSE
            X509v3 Key Usage: 
                Digital Signature, Key Encipherment
            X509v3 Extended Key Usage: 
                TLS Web Server Authentication
            X509v3 Subject Alternative Name: 
                DNS:gitlab.iblog.pro
            Netscape Comment: 
                OpenSSL Generated Certificate
    Signature Algorithm: sha256WithRSAEncryption
    Signature Value:
        dd:25:98:f6:35:e3:d4:d8:52:45:fa:87:29:25:b2:9e:1b:53:
        55:bb:b4:58:a0:08:c9:66:9d:23:1b:e4:88:0c:6a:ad:50:7d:
        b6:27:59:27:7b:ee:38:4e:8f:7d:b3:5c:e1:90:56:86:38:98:
        af:14:1d:1b:ed:a1:b6:83:a4:d6:56:4b:f5:c5:18:64:06:b6:
        36:f4:8b:b1:f9:ee:f4:1d:b5:04:99:f6:12:d5:d8:52:55:90:
        c5:de:68:ec:b0:ce:7f:58:f8:c7:53:11:8e:85:18:37:c2:1f:
        34:8f:03:40:7e:4d:85:a1:cb:1b:4c:89:b6:70:83:53:54:29:
        fe:13:22:fb:b3:1c:d6:67:72:7e:a5:56:42:71:cf:59:a4:6a:
        da:06:fc:7f:fc:22:99:c5:16:0b:0e:6e:ef:cb:c2:c7:88:e5:
        95:87:ca:e7:7d:e9:5a:20:5a:20:0b:68:20:be:4f:4e:b7:33:
        e2:3c:43:aa:83:db:bd:71:b8:2d:2e:69:a7:c6:eb:36:3a:76:
        71:b2:fa:b8:93:66:13:75:24:a8:9a:0a:b1:d4:8e:25:85:78:
        e4:3f:07:57:35:b0:5b:b3:1e:9a:b2:cb:9a:ac:fd:7c:9e:8d:
        64:28:54:53:9e:5a:35:f4:fd:3d:73:38:9d:78:95:82:7f:84:
        2e:04:bc:f6:5e:0d:5b:b1:8b:bf:9a:c4:7b:eb:5a:4b:e5:f0:
        26:07:81:f7:f5:d0:9e:26:68:d4:ed:94:3b:a0:1c:51:3e:20:
        e7:7d:4f:ac:e3:96:bd:a3:18:9a:df:f8:a2:2e:f5:80:a8:e1:
        3c:14:38:39:8c:00:0a:87:ad:cf:07:07:51:be:23:a0:90:7b:
        d0:c2:d2:d6:38:de:55:45:fd:d9:55:a7:d8:28:4e:89:5c:72:
        f9:67:0e:0c:6e:05:59:97:36:73:41:08:13:1e:b6:f1:d1:e0:
        7a:23:90:97:a0:5c:09:4b:69:05:5e:79:9b:80:96:cc:7b:de:
        3c:92:b7:15:6a:80:12:91:7b:70:d8:a4:ea:d9:a2:9c:2b:a6:
        78:6a:92:41:e9:d0:a4:ba:cc:86:b7:0c:1f:ba:11:a4:0d:a5:
        68:81:28:68:42:df:e5:4d:16:bb:83:92:0d:d7:9b:27:56:91:
        3c:e0:89:aa:07:03:2d:15:53:20:04:34:22:8e:a5:1e:2b:db:
        74:8d:18:e8:09:80:1f:5f:72:d6:c1:1a:c8:d8:25:ff:ef:fc:
        73:17:ad:e6:4d:24:32:4a:0f:4d:b4:8b:10:ff:a5:1f:d9:72:
        35:a3:5a:29:8a:48:12:08:37:04:22:11:d7:f1:da:8d:95:d5:
        f1:c2:6f:7c:6c:48:4f:d3
-----BEGIN CERTIFICATE-----
MIIFSTCCAzGgAwIBAgIBGDANBgkqhkiG9w0BAQsFADCBoTELMAkGA1UEBhMCUlUx
GjAYBgNVBAgMEVNWRVJETE9WU0sgUkVHSU9OMRYwFAYDVQQHDA1ZRUtBVEVSSU5C
VVJHMRIwEAYDVQQKDAlpQkxPRy5QUk8xEjAQBgNVBAsMCWlCTE9HLlBSTzEVMBMG
A1UEAwwMaUJMT0cuUFJPIENBMR8wHQYJKoZIhvcNAQkBFhB2b3Jsb25AaWJsb2cu
cHJvMB4XDTIyMDUwNDA0NTkxN1oXDTIzMDUwNDA0NTkxN1owcDELMAkGA1UEBhMC
UlUxGjAYBgNVBAgMEVNWRVJETE9WU0sgUkVHSU9OMRYwFAYDVQQHDA1ZRUtBVEVS
SU5CVVJHMRIwEAYDVQQKDAlpQkxPRy5QUk8xGTAXBgNVBAMMEGdpdGxhYi5pYmxv
Zy5wcm8wggEiMA0GCSqGSIb3DQEBAQUAA4IBDwAwggEKAoIBAQCLl4fXhM26vuHL
YKosBYUXkQ5xqrKkzdMrunhhJzBYDIy0y5wPhEn7wTfCUEBTa6HbkjXedFJqFFa4
i/EGlEBBQHgXw8d990+KWioJmXb4wvZPa5bT6PxMFVbiDOK6jIbUHB0BH2kis+e8
czcNwrE66W86W+9RJ2priQSeuFc+i51H4RJ83dDXgjubhX5rgB0C5avoXoY4LmEs
H0Qxdo3Y3oz9uEzaLzLKLX/vEA/mglPUOTHfClwTVtTlqeFTe33+N9ZMnpRXX2H+
o/nCt7toulWbL9sQOGz72W4Pe9nK6Hx/IwvBo+30fXMOHcQompLV/GrPz79onZG3
sYiYAIUrAgMBAAGjgbswgbgwHQYDVR0OBBYEFMfcfBKxbWOIigxgfBF3h5RLmK38
MB8GA1UdIwQYMBaAFI9EYn6EpT/zsmvAb2Aj++0qIhHnMAkGA1UdEwQCMAAwCwYD
VR0PBAQDAgWgMBMGA1UdJQQMMAoGCCsGAQUFBwMBMBsGA1UdEQQUMBKCEGdpdGxh
Yi5pYmxvZy5wcm8wLAYJYIZIAYb4QgENBB8WHU9wZW5TU0wgR2VuZXJhdGVkIENl
cnRpZmljYXRlMA0GCSqGSIb3DQEBCwUAA4ICAQDdJZj2NePU2FJF+ocpJbKeG1NV
u7RYoAjJZp0jG+SIDGqtUH22J1kne+44To99s1zhkFaGOJivFB0b7aG2g6TWVkv1
xRhkBrY29Iux+e70HbUEmfYS1dhSVZDF3mjssM5/WPjHUxGOhRg3wh80jwNAfk2F
ocsbTIm2cINTVCn+EyL7sxzWZ3J+pVZCcc9ZpGraBvx//CKZxRYLDm7vy8LHiOWV
h8rnfelaIFogC2ggvk9OtzPiPEOqg9u9cbgtLmmnxus2OnZxsvq4k2YTdSSomgqx
1I4lhXjkPwdXNbBbsx6assuarP18no1kKFRTnlo19P09czideJWCf4QuBLz2Xg1b
sYu/msR761pL5fAmB4H39dCeJmjU7ZQ7oBxRPiDnfU+s45a9oxia3/iiLvWAqOE8
FDg5jAAKh63PBwdRviOgkHvQwtLWON5VRf3ZVafYKE6JXHL5Zw4MbgVZlzZzQQgT
Hrbx0eB6I5CXoFwJS2kFXnmbgJbMe948krcVaoASkXtw2KTq2aKcK6Z4apJB6dCk
usyGtwwfuhGkDaVogShoQt/lTRa7g5IN15snVpE84ImqBwMtFVMgBDQijqUeK9t0
jRjoCYAfX3LWwRrI2CX/7/xzF63mTSQySg9NtIsQ/6Uf2XI1o1opikgSCDcEIhHX
8dqNldXxwm98bEhP0w==
-----END CERTIFICATE-----
