Certificate:
    Data:
        Version: 3 (0x2)
        Serial Number: 23 (0x17)
        Signature Algorithm: sha256WithRSAEncryption
        Issuer: C=RU, ST=SVERDLOVSK REGION, L=YEKATERINBURG, O=iBLOG.PRO, OU=iBLOG.PRO, CN=iBLOG.PRO CA/emailAddress=vorlon@iblog.pro
        Validity
            Not Before: May  4 04:58:34 2022 GMT
            Not After : May  4 04:58:34 2023 GMT
        Subject: C=RU, ST=SVERDLOVSK REGION, L=YEKATERINBURG, O=iBLOG.PRO, CN=openldap.iblog.pro
        Subject Public Key Info:
            Public Key Algorithm: rsaEncryption
                Public-Key: (2048 bit)
                Modulus:
                    00:cd:f1:49:84:57:6a:5a:56:ec:1f:87:ae:98:ab:
                    d1:ad:e8:a2:f4:b6:a0:5d:46:bb:f9:e1:4f:a9:7c:
                    0e:78:7f:7d:d7:9a:2f:14:be:06:d2:48:ec:4b:49:
                    30:01:f9:ce:a8:94:46:19:2b:7d:09:5e:6e:4c:21:
                    04:c1:fe:08:47:cd:9d:3e:92:6c:c4:d5:62:b4:e4:
                    f5:d2:41:91:5c:a4:e3:a2:fc:17:ae:54:19:f9:fa:
                    44:f4:6e:7b:94:a6:80:92:84:63:09:45:2c:0c:33:
                    c8:7e:f5:f7:06:23:39:92:47:90:6a:b6:e1:71:1d:
                    35:5e:89:6e:56:df:26:ca:be:f3:b8:e7:74:35:58:
                    87:f4:12:18:e5:d5:8c:86:f0:c0:be:64:3e:05:e5:
                    3f:52:0c:fb:91:12:c7:36:bc:b2:f7:a2:9d:9b:ff:
                    c1:e1:47:1f:10:91:05:db:e0:77:d3:6f:de:18:72:
                    15:a4:bd:f5:b6:e6:13:bf:2c:72:c4:dc:38:3c:49:
                    0a:9a:d7:ac:91:cf:c7:a8:c3:2f:55:a9:a2:38:95:
                    00:03:9e:33:ef:ea:46:88:02:41:5d:0c:cc:4d:14:
                    99:0c:5c:fd:1e:3a:41:59:05:60:3b:d2:3d:05:5b:
                    5d:e6:a2:90:ac:3a:8f:dc:c6:71:0a:14:e1:b8:f1:
                    8f:a5
                Exponent: 65537 (0x10001)
        X509v3 extensions:
            X509v3 Subject Key Identifier: 
                4D:80:B4:08:AE:76:20:E4:6C:B1:44:87:BC:59:4B:D4:AC:7D:1C:B0
            X509v3 Authority Key Identifier: 
                8F:44:62:7E:84:A5:3F:F3:B2:6B:C0:6F:60:23:FB:ED:2A:22:11:E7
            X509v3 Basic Constraints: 
                CA:FALSE
            X509v3 Key Usage: 
                Digital Signature, Key Encipherment
            X509v3 Extended Key Usage: 
                TLS Web Server Authentication
            X509v3 Subject Alternative Name: 
                DNS:openldap.iblog.pro
            Netscape Comment: 
                OpenSSL Generated Certificate
    Signature Algorithm: sha256WithRSAEncryption
    Signature Value:
        c1:b8:3d:f9:89:69:f2:79:34:cc:c3:22:c8:94:3f:07:f0:ea:
        2c:cf:e9:e8:9b:4b:64:bf:34:59:b2:a4:04:d6:2f:f6:cf:9b:
        95:91:61:f9:51:08:3e:e5:73:37:37:11:ad:e9:e4:8a:5a:04:
        4d:26:d9:7d:78:92:b2:13:b0:12:a4:3e:68:22:da:97:d2:05:
        fc:b3:b3:21:cc:89:4d:51:02:6a:71:0f:9f:77:19:03:8a:d5:
        61:fe:55:ad:f1:be:00:87:1e:6e:93:ec:9c:1d:50:2f:47:d5:
        36:e5:0d:89:8e:32:b0:47:45:c5:cc:8e:dd:ec:5a:b6:6a:bd:
        e5:ac:5e:b8:3a:4b:23:4f:20:99:3c:84:10:6e:74:8a:a6:38:
        6d:75:34:08:29:be:89:a1:91:22:14:28:e8:63:ca:96:19:3b:
        58:b3:1a:76:46:69:2e:51:70:6d:66:91:cd:8e:a0:bb:a8:c5:
        7e:be:bc:cb:2d:79:c4:bb:4a:b9:ac:f6:a9:ea:31:6e:27:61:
        de:67:19:22:2b:58:81:3c:5e:be:53:69:04:05:54:17:9f:a7:
        c0:f0:db:06:d1:65:51:85:29:07:d2:00:9a:f2:2f:b5:a7:11:
        99:17:e7:bc:1e:ab:50:40:d8:9d:bc:71:ee:a6:57:b2:10:83:
        03:82:7d:d7:24:f2:36:a2:f3:9f:28:02:4f:67:56:4e:8d:96:
        9c:a2:6e:9f:10:26:2e:aa:0c:0b:5f:6a:9a:ab:1c:0d:2d:8f:
        da:68:c6:9d:87:69:2e:ad:2d:25:7e:52:cd:10:cd:8f:bf:fa:
        ef:3b:f2:15:e8:24:73:47:5a:b7:dd:09:f7:b3:39:76:b0:66:
        03:22:a7:56:94:0b:c5:72:af:99:d0:16:5c:ff:bb:d0:70:79:
        7b:fe:f9:50:5c:86:91:26:b6:7f:38:4c:ff:91:78:cd:53:14:
        01:79:f3:e6:54:2f:66:b7:2e:a9:c6:f7:02:10:3a:13:09:e3:
        b0:0b:f2:61:25:43:2d:54:e2:dc:0d:a5:e2:cf:7a:1c:11:55:
        d1:ca:b6:c8:ba:93:3e:67:30:91:b4:d7:b4:fc:9f:bd:2b:56:
        9e:6d:60:61:4c:a8:53:4c:e2:32:95:cc:50:ba:5e:07:84:5a:
        67:0f:d1:f7:8e:83:bf:4a:bc:ed:a0:75:45:c4:24:fd:45:31:
        01:7c:5a:46:14:86:08:86:54:ec:75:52:0b:6d:2a:f2:29:3d:
        b6:4c:43:17:79:48:45:8e:68:97:97:70:0d:5b:00:01:e9:a7:
        68:d5:bd:6a:94:13:90:af:8c:c3:4b:6e:34:8a:ab:d5:cb:6e:
        5f:4a:14:9e:d7:a6:ec:df
-----BEGIN CERTIFICATE-----
MIIFTTCCAzWgAwIBAgIBFzANBgkqhkiG9w0BAQsFADCBoTELMAkGA1UEBhMCUlUx
GjAYBgNVBAgMEVNWRVJETE9WU0sgUkVHSU9OMRYwFAYDVQQHDA1ZRUtBVEVSSU5C
VVJHMRIwEAYDVQQKDAlpQkxPRy5QUk8xEjAQBgNVBAsMCWlCTE9HLlBSTzEVMBMG
A1UEAwwMaUJMT0cuUFJPIENBMR8wHQYJKoZIhvcNAQkBFhB2b3Jsb25AaWJsb2cu
cHJvMB4XDTIyMDUwNDA0NTgzNFoXDTIzMDUwNDA0NTgzNFowcjELMAkGA1UEBhMC
UlUxGjAYBgNVBAgMEVNWRVJETE9WU0sgUkVHSU9OMRYwFAYDVQQHDA1ZRUtBVEVS
SU5CVVJHMRIwEAYDVQQKDAlpQkxPRy5QUk8xGzAZBgNVBAMMEm9wZW5sZGFwLmli
bG9nLnBybzCCASIwDQYJKoZIhvcNAQEBBQADggEPADCCAQoCggEBAM3xSYRXalpW
7B+Hrpir0a3oovS2oF1Gu/nhT6l8Dnh/fdeaLxS+BtJI7EtJMAH5zqiURhkrfQle
bkwhBMH+CEfNnT6SbMTVYrTk9dJBkVyk46L8F65UGfn6RPRue5SmgJKEYwlFLAwz
yH719wYjOZJHkGq24XEdNV6JblbfJsq+87jndDVYh/QSGOXVjIbwwL5kPgXlP1IM
+5ESxza8sveinZv/weFHHxCRBdvgd9Nv3hhyFaS99bbmE78scsTcODxJCprXrJHP
x6jDL1WpojiVAAOeM+/qRogCQV0MzE0UmQxc/R46QVkFYDvSPQVbXeaikKw6j9zG
cQoU4bjxj6UCAwEAAaOBvTCBujAdBgNVHQ4EFgQUTYC0CK52IORssUSHvFlL1Kx9
HLAwHwYDVR0jBBgwFoAUj0RifoSlP/Oya8BvYCP77SoiEecwCQYDVR0TBAIwADAL
BgNVHQ8EBAMCBaAwEwYDVR0lBAwwCgYIKwYBBQUHAwEwHQYDVR0RBBYwFIISb3Bl
bmxkYXAuaWJsb2cucHJvMCwGCWCGSAGG+EIBDQQfFh1PcGVuU1NMIEdlbmVyYXRl
ZCBDZXJ0aWZpY2F0ZTANBgkqhkiG9w0BAQsFAAOCAgEAwbg9+Ylp8nk0zMMiyJQ/
B/DqLM/p6JtLZL80WbKkBNYv9s+blZFh+VEIPuVzNzcRrenkiloETSbZfXiSshOw
EqQ+aCLal9IF/LOzIcyJTVECanEPn3cZA4rVYf5VrfG+AIcebpPsnB1QL0fVNuUN
iY4ysEdFxcyO3exatmq95axeuDpLI08gmTyEEG50iqY4bXU0CCm+iaGRIhQo6GPK
lhk7WLMadkZpLlFwbWaRzY6gu6jFfr68yy15xLtKuaz2qeoxbidh3mcZIitYgTxe
vlNpBAVUF5+nwPDbBtFlUYUpB9IAmvIvtacRmRfnvB6rUEDYnbxx7qZXshCDA4J9
1yTyNqLznygCT2dWTo2WnKJunxAmLqoMC19qmqscDS2P2mjGnYdpLq0tJX5SzRDN
j7/67zvyFegkc0dat90J97M5drBmAyKnVpQLxXKvmdAWXP+70HB5e/75UFyGkSa2
fzhM/5F4zVMUAXnz5lQvZrcuqcb3AhA6EwnjsAvyYSVDLVTi3A2l4s96HBFV0cq2
yLqTPmcwkbTXtPyfvStWnm1gYUyoU0ziMpXMULpeB4RaZw/R946Dv0q87aB1RcQk
/UUxAXxaRhSGCIZU7HVSC20q8ik9tkxDF3lIRY5ol5dwDVsAAemnaNW9apQTkK+M
w0tuNIqr1ctuX0oUntem7N8=
-----END CERTIFICATE-----
