Certificate:
    Data:
        Version: 3 (0x2)
        Serial Number: 25 (0x19)
        Signature Algorithm: sha256WithRSAEncryption
        Issuer: C=RU, ST=SVERDLOVSK REGION, L=YEKATERINBURG, O=iBLOG.PRO, OU=iBLOG.PRO, CN=iBLOG.PRO CA/emailAddress=vorlon@iblog.pro
        Validity
            Not Before: May  4 04:59:29 2022 GMT
            Not After : May  4 04:59:29 2023 GMT
        Subject: C=RU, ST=SVERDLOVSK REGION, L=YEKATERINBURG, O=iBLOG.PRO, CN=gregistry.iblog.pro
        Subject Public Key Info:
            Public Key Algorithm: rsaEncryption
                Public-Key: (2048 bit)
                Modulus:
                    00:d2:e3:be:e9:ba:0b:01:bb:33:5e:8c:8b:91:5a:
                    f0:da:c6:43:11:b2:b7:e2:33:8a:f1:ba:ce:4c:74:
                    b6:be:30:c1:5e:18:b9:48:3b:8d:47:ae:98:b9:c3:
                    37:ca:99:f0:35:42:b9:f3:a8:94:2f:50:cb:da:34:
                    15:62:20:29:c4:de:43:ee:ed:2a:77:8f:4a:8a:94:
                    e6:ba:8e:6b:6f:93:1f:af:67:a2:17:6f:96:2f:d9:
                    74:eb:b3:da:75:72:35:bd:3a:8a:cf:ef:38:17:ee:
                    93:fb:1d:02:79:c5:7f:4e:86:f0:d2:04:ed:10:5f:
                    03:bc:45:71:8d:fd:62:3a:ef:b1:14:75:f2:3a:cc:
                    8c:81:95:e5:a8:5b:cb:62:5c:78:43:73:0d:f2:0b:
                    5e:0c:40:8c:4c:5d:93:60:a3:fe:52:fe:e7:70:59:
                    82:f4:98:31:bd:29:e3:9e:79:78:55:93:5b:31:13:
                    1c:4b:dd:39:b5:e6:f8:30:73:5e:27:78:cd:92:8e:
                    b2:1b:54:46:19:eb:97:b4:89:b7:7e:85:58:c6:9f:
                    62:4d:02:9b:7c:a7:c0:51:c2:3a:e7:a7:d2:cc:7c:
                    ee:e8:c8:f0:10:7d:f0:c0:c1:fe:7f:91:a0:38:22:
                    64:0f:e4:8a:e2:bc:68:59:50:ef:b3:b9:69:fa:5d:
                    e3:9d
                Exponent: 65537 (0x10001)
        X509v3 extensions:
            X509v3 Subject Key Identifier: 
                12:C8:13:55:CA:F5:00:84:CF:6F:DD:33:42:48:D4:FF:BB:91:C1:B6
            X509v3 Authority Key Identifier: 
                8F:44:62:7E:84:A5:3F:F3:B2:6B:C0:6F:60:23:FB:ED:2A:22:11:E7
            X509v3 Basic Constraints: 
                CA:FALSE
            X509v3 Key Usage: 
                Digital Signature, Key Encipherment
            X509v3 Extended Key Usage: 
                TLS Web Server Authentication
            X509v3 Subject Alternative Name: 
                DNS:gregistry.iblog.pro
            Netscape Comment: 
                OpenSSL Generated Certificate
    Signature Algorithm: sha256WithRSAEncryption
    Signature Value:
        78:e7:f1:38:b8:5c:ca:16:f0:52:d3:48:5f:f0:44:e1:c9:40:
        9e:8e:ae:8d:6d:30:aa:5e:43:65:4f:80:f8:10:48:c1:8f:1a:
        7d:f8:43:72:37:ae:20:e8:f7:b8:ff:4d:c2:19:90:94:c5:63:
        fa:58:73:77:1c:93:99:2f:78:37:6c:97:f2:83:45:aa:a5:2c:
        3c:62:12:14:b8:a2:3c:73:15:f1:6d:0f:19:df:6a:73:02:5d:
        05:d4:c3:fe:f7:10:0b:a1:b8:8a:24:92:79:61:13:ab:8c:7f:
        81:0b:ef:7f:27:df:b5:97:89:f4:9c:eb:73:12:01:7e:67:5d:
        89:4d:1b:4c:c8:5d:48:5f:53:b8:71:cb:11:a7:e5:c3:1d:d4:
        54:9c:40:1b:96:99:55:c3:7e:bf:0b:09:84:64:c9:e2:60:92:
        62:89:e3:af:04:60:fb:76:f6:7a:86:60:b6:d7:b0:30:f0:2a:
        f5:83:ae:fb:6b:83:e8:aa:94:a5:42:c9:33:dd:c6:8c:08:7d:
        29:29:57:6e:e9:a6:f8:c8:1d:27:09:02:67:01:b4:34:95:a1:
        5f:c3:12:8b:20:a1:6a:a2:cc:87:76:e8:ef:5e:07:63:fe:f5:
        8d:24:eb:0a:c7:45:4a:9f:39:ff:61:80:b1:93:6f:d6:bf:40:
        9a:8a:42:71:3a:41:b9:9f:5a:ce:ca:5d:52:96:cb:6b:49:a5:
        67:a9:48:88:ca:b5:50:dd:84:52:f9:2d:31:8a:df:92:ab:fa:
        e0:be:55:09:8e:bb:9a:de:5f:2e:fd:97:7d:0f:75:9f:cf:f7:
        02:b4:c8:b2:8f:91:ea:29:f1:59:d7:2b:b9:65:c9:b1:40:6b:
        71:9d:70:ed:c5:1e:85:6f:e0:2b:39:73:8d:57:97:01:20:58:
        de:a0:59:88:18:6d:8a:e6:4f:af:74:20:1b:97:13:cf:e7:9d:
        b5:09:96:32:61:11:af:c4:23:a0:16:6e:a2:fa:2e:a5:70:4e:
        4a:e4:e7:7d:cb:0c:33:8a:08:f8:21:d6:2c:19:bc:54:7c:92:
        a0:5b:65:1b:dc:e5:57:dc:6a:3e:12:f8:27:32:c1:44:98:c2:
        cc:54:8d:e6:8b:40:da:98:3c:be:6e:e4:a0:fe:fd:be:04:29:
        32:d2:c7:64:7e:6f:f2:02:f2:dc:bc:c6:44:71:a7:89:a6:d6:
        60:65:a6:f4:12:02:c5:00:1c:cf:cb:07:0e:91:ee:7c:04:57:
        3f:39:cd:c8:df:8c:3e:a2:f7:97:eb:3c:bd:79:0d:06:c2:28:
        cd:12:b0:d0:48:ed:79:79:0d:d7:96:5a:3b:ef:ec:0a:cf:82:
        99:c1:d3:51:02:0f:eb:d1
-----BEGIN CERTIFICATE-----
MIIFTzCCAzegAwIBAgIBGTANBgkqhkiG9w0BAQsFADCBoTELMAkGA1UEBhMCUlUx
GjAYBgNVBAgMEVNWRVJETE9WU0sgUkVHSU9OMRYwFAYDVQQHDA1ZRUtBVEVSSU5C
VVJHMRIwEAYDVQQKDAlpQkxPRy5QUk8xEjAQBgNVBAsMCWlCTE9HLlBSTzEVMBMG
A1UEAwwMaUJMT0cuUFJPIENBMR8wHQYJKoZIhvcNAQkBFhB2b3Jsb25AaWJsb2cu
cHJvMB4XDTIyMDUwNDA0NTkyOVoXDTIzMDUwNDA0NTkyOVowczELMAkGA1UEBhMC
UlUxGjAYBgNVBAgMEVNWRVJETE9WU0sgUkVHSU9OMRYwFAYDVQQHDA1ZRUtBVEVS
SU5CVVJHMRIwEAYDVQQKDAlpQkxPRy5QUk8xHDAaBgNVBAMME2dyZWdpc3RyeS5p
YmxvZy5wcm8wggEiMA0GCSqGSIb3DQEBAQUAA4IBDwAwggEKAoIBAQDS477pugsB
uzNejIuRWvDaxkMRsrfiM4rxus5MdLa+MMFeGLlIO41Hrpi5wzfKmfA1QrnzqJQv
UMvaNBViICnE3kPu7Sp3j0qKlOa6jmtvkx+vZ6IXb5Yv2XTrs9p1cjW9OorP7zgX
7pP7HQJ5xX9OhvDSBO0QXwO8RXGN/WI677EUdfI6zIyBleWoW8tiXHhDcw3yC14M
QIxMXZNgo/5S/udwWYL0mDG9KeOeeXhVk1sxExxL3Tm15vgwc14neM2SjrIbVEYZ
65e0ibd+hVjGn2JNApt8p8BRwjrnp9LMfO7oyPAQffDAwf5/kaA4ImQP5IrivGhZ
UO+zuWn6XeOdAgMBAAGjgb4wgbswHQYDVR0OBBYEFBLIE1XK9QCEz2/dM0JI1P+7
kcG2MB8GA1UdIwQYMBaAFI9EYn6EpT/zsmvAb2Aj++0qIhHnMAkGA1UdEwQCMAAw
CwYDVR0PBAQDAgWgMBMGA1UdJQQMMAoGCCsGAQUFBwMBMB4GA1UdEQQXMBWCE2dy
ZWdpc3RyeS5pYmxvZy5wcm8wLAYJYIZIAYb4QgENBB8WHU9wZW5TU0wgR2VuZXJh
dGVkIENlcnRpZmljYXRlMA0GCSqGSIb3DQEBCwUAA4ICAQB45/E4uFzKFvBS00hf
8EThyUCejq6NbTCqXkNlT4D4EEjBjxp9+ENyN64g6Pe4/03CGZCUxWP6WHN3HJOZ
L3g3bJfyg0WqpSw8YhIUuKI8cxXxbQ8Z32pzAl0F1MP+9xALobiKJJJ5YROrjH+B
C+9/J9+1l4n0nOtzEgF+Z12JTRtMyF1IX1O4ccsRp+XDHdRUnEAblplVw36/CwmE
ZMniYJJiieOvBGD7dvZ6hmC217Aw8Cr1g677a4PoqpSlQskz3caMCH0pKVdu6ab4
yB0nCQJnAbQ0laFfwxKLIKFqosyHdujvXgdj/vWNJOsKx0VKnzn/YYCxk2/Wv0Ca
ikJxOkG5n1rOyl1SlstrSaVnqUiIyrVQ3YRS+S0xit+Sq/rgvlUJjrua3l8u/Zd9
D3Wfz/cCtMiyj5HqKfFZ1yu5ZcmxQGtxnXDtxR6Fb+ArOXONV5cBIFjeoFmIGG2K
5k+vdCAblxPP5521CZYyYRGvxCOgFm6i+i6lcE5K5Od9ywwzigj4IdYsGbxUfJKg
W2Ub3OVX3Go+EvgnMsFEmMLMVI3mi0DamDy+buSg/v2+BCky0sdkfm/yAvLcvMZE
caeJptZgZab0EgLFABzPywcOke58BFc/Oc3I34w+oveX6zy9eQ0GwijNErDQSO15
eQ3Xllo77+wKz4KZwdNRAg/r0Q==
-----END CERTIFICATE-----
