Certificate:
    Data:
        Version: 3 (0x2)
        Serial Number: 21 (0x15)
        Signature Algorithm: sha256WithRSAEncryption
        Issuer: C=RU, ST=SVERDLOVSK REGION, L=YEKATERINBURG, O=iBLOG.PRO, OU=iBLOG.PRO, CN=iBLOG.PRO CA/emailAddress=vorlon@iblog.pro
        Validity
            Not Before: May  4 04:58:02 2022 GMT
            Not After : May  4 04:58:02 2023 GMT
        Subject: C=RU, ST=SVERDLOVSK REGION, L=YEKATERINBURG, O=iBLOG.PRO, CN=nexus3-k8s-gcr-io.iblog.pro
        Subject Public Key Info:
            Public Key Algorithm: rsaEncryption
                Public-Key: (2048 bit)
                Modulus:
                    00:a3:19:ea:54:b7:fc:79:d0:1a:2f:e1:bc:ea:9e:
                    2f:6d:59:ed:fd:fc:5e:3f:c2:00:ca:9e:35:82:06:
                    b5:6a:b0:ce:f1:22:b6:89:cb:f0:3d:0a:bf:2d:7c:
                    4e:0d:51:2a:1e:bf:df:69:fc:95:7b:18:05:61:64:
                    fb:3f:72:7b:b3:37:00:d6:4a:f7:bc:f2:d2:f3:39:
                    d3:dd:38:30:a6:5a:f3:7c:ce:b9:27:33:41:da:9e:
                    3b:76:8c:60:4f:fc:67:4d:07:13:ce:14:c7:03:8a:
                    bd:f6:9d:0a:29:3f:85:43:26:25:20:66:18:8a:15:
                    fb:39:e0:e4:1d:fa:5f:f0:17:82:c3:26:fa:ef:7a:
                    2e:2d:89:ee:b4:67:85:cf:13:d8:98:ef:ce:fc:b6:
                    7d:f7:75:bb:11:9f:5b:5e:ca:5a:08:f3:c4:88:d9:
                    14:eb:36:7b:f6:e4:b3:81:8c:53:65:da:b4:0a:ea:
                    b0:a9:6f:c1:83:47:6d:bb:c8:2c:b1:53:c4:fc:78:
                    9e:e2:ea:79:ea:ee:c4:ce:87:a4:25:7c:66:c4:70:
                    56:ba:53:6e:aa:8a:41:7f:72:1c:0b:70:14:7f:4a:
                    e5:f2:43:c7:37:88:03:db:c8:09:95:8b:45:be:33:
                    67:08:b6:3c:de:04:4f:4e:ec:3e:3c:c2:bd:a8:55:
                    23:25
                Exponent: 65537 (0x10001)
        X509v3 extensions:
            X509v3 Subject Key Identifier: 
                2B:D8:FD:8B:5E:AA:32:08:59:AF:29:47:9B:BC:F7:FA:10:BA:C5:DE
            X509v3 Authority Key Identifier: 
                8F:44:62:7E:84:A5:3F:F3:B2:6B:C0:6F:60:23:FB:ED:2A:22:11:E7
            X509v3 Basic Constraints: 
                CA:FALSE
            X509v3 Key Usage: 
                Digital Signature, Key Encipherment
            X509v3 Extended Key Usage: 
                TLS Web Server Authentication
            X509v3 Subject Alternative Name: 
                DNS:nexus3-k8s-gcr-io.iblog.pro
            Netscape Comment: 
                OpenSSL Generated Certificate
    Signature Algorithm: sha256WithRSAEncryption
    Signature Value:
        29:93:d2:36:b5:47:a7:74:7e:5c:a3:db:d9:93:64:d5:0a:c4:
        e8:22:3e:84:69:10:29:3f:bd:a3:cc:db:2c:37:25:95:3b:0e:
        0a:04:97:72:6d:d3:9a:eb:e9:51:54:d2:0d:6c:79:16:63:d5:
        14:f8:f6:ba:eb:eb:c4:8d:98:37:13:8a:38:60:69:8a:9c:82:
        9b:4a:a1:1f:56:8d:4f:40:23:25:1d:8d:43:e7:d9:bf:0d:85:
        00:75:fa:bf:23:d4:c5:ec:ce:8f:25:96:5c:96:75:5e:e2:22:
        d0:8d:44:d6:46:0e:99:e1:ec:ab:54:c4:4e:9b:70:49:a7:14:
        05:36:5d:75:c5:9d:5e:f9:45:5b:d8:ce:be:ac:b0:60:cd:0c:
        c0:99:20:92:02:9b:ce:21:21:72:09:1e:9b:bb:b2:3e:b4:50:
        89:43:66:16:db:c8:1e:5c:c0:ab:c2:6c:ac:72:e0:92:cf:83:
        fe:2f:70:ac:33:6c:80:56:9f:c6:90:fc:8b:b3:78:7c:76:16:
        be:70:59:53:13:92:97:5e:75:c0:1b:be:04:0c:3c:28:07:2a:
        e9:de:ca:43:24:08:0f:65:40:2c:62:ff:f6:26:43:ed:c3:be:
        db:58:d7:30:74:8d:60:ab:85:9d:4b:b3:c2:04:ef:a4:b9:fb:
        99:aa:12:5f:ef:96:2e:30:33:45:45:cc:ce:1f:0c:ed:78:15:
        92:04:7b:6b:d8:be:c1:2a:c7:90:4c:90:a8:0c:3d:d1:3b:b5:
        2d:49:6f:95:8b:c7:d5:ad:d0:d4:de:f3:70:65:47:4a:d5:86:
        eb:10:9c:d2:ed:8b:a0:59:f4:db:cc:01:30:47:62:2f:26:50:
        c7:74:f7:9f:22:80:2a:cb:8e:a8:95:a7:2b:57:37:88:9c:77:
        c4:ce:f9:9f:4b:06:cf:05:b5:4b:4d:57:69:cc:08:25:68:4d:
        f7:f5:3e:75:a2:b7:1e:86:fd:5a:f1:30:6d:c4:12:66:be:c0:
        43:20:0a:18:1c:5d:f1:2c:42:40:92:57:45:3f:87:57:e5:4f:
        3f:fa:94:77:bf:c0:e3:40:c3:79:c1:66:8f:8f:73:34:2d:74:
        cd:8f:18:d9:55:ff:ae:f8:2a:a5:02:fa:1d:cf:57:72:2c:b1:
        5f:84:56:65:a8:05:a3:90:8b:22:06:5f:17:96:d3:fc:30:df:
        e8:fd:1f:2c:53:ea:db:ca:e4:4c:db:1f:21:94:cc:67:a8:91:
        58:8f:9d:a2:60:e6:d8:f1:ce:82:10:03:f1:a4:7a:5d:cd:9d:
        d5:29:e7:00:cb:fd:b4:45:5c:05:74:ee:bd:e3:c2:c9:e4:5c:
        d3:d6:59:fd:02:89:77:c8
-----BEGIN CERTIFICATE-----
MIIFXzCCA0egAwIBAgIBFTANBgkqhkiG9w0BAQsFADCBoTELMAkGA1UEBhMCUlUx
GjAYBgNVBAgMEVNWRVJETE9WU0sgUkVHSU9OMRYwFAYDVQQHDA1ZRUtBVEVSSU5C
VVJHMRIwEAYDVQQKDAlpQkxPRy5QUk8xEjAQBgNVBAsMCWlCTE9HLlBSTzEVMBMG
A1UEAwwMaUJMT0cuUFJPIENBMR8wHQYJKoZIhvcNAQkBFhB2b3Jsb25AaWJsb2cu
cHJvMB4XDTIyMDUwNDA0NTgwMloXDTIzMDUwNDA0NTgwMlowezELMAkGA1UEBhMC
UlUxGjAYBgNVBAgMEVNWRVJETE9WU0sgUkVHSU9OMRYwFAYDVQQHDA1ZRUtBVEVS
SU5CVVJHMRIwEAYDVQQKDAlpQkxPRy5QUk8xJDAiBgNVBAMMG25leHVzMy1rOHMt
Z2NyLWlvLmlibG9nLnBybzCCASIwDQYJKoZIhvcNAQEBBQADggEPADCCAQoCggEB
AKMZ6lS3/HnQGi/hvOqeL21Z7f38Xj/CAMqeNYIGtWqwzvEitonL8D0Kvy18Tg1R
Kh6/32n8lXsYBWFk+z9ye7M3ANZK97zy0vM50904MKZa83zOuSczQdqeO3aMYE/8
Z00HE84UxwOKvfadCik/hUMmJSBmGIoV+zng5B36X/AXgsMm+u96Li2J7rRnhc8T
2Jjvzvy2ffd1uxGfW17KWgjzxIjZFOs2e/bks4GMU2XatArqsKlvwYNHbbvILLFT
xPx4nuLqeeruxM6HpCV8ZsRwVrpTbqqKQX9yHAtwFH9K5fJDxzeIA9vICZWLRb4z
Zwi2PN4ET07sPjzCvahVIyUCAwEAAaOBxjCBwzAdBgNVHQ4EFgQUK9j9i16qMghZ
rylHm7z3+hC6xd4wHwYDVR0jBBgwFoAUj0RifoSlP/Oya8BvYCP77SoiEecwCQYD
VR0TBAIwADALBgNVHQ8EBAMCBaAwEwYDVR0lBAwwCgYIKwYBBQUHAwEwJgYDVR0R
BB8wHYIbbmV4dXMzLWs4cy1nY3ItaW8uaWJsb2cucHJvMCwGCWCGSAGG+EIBDQQf
Fh1PcGVuU1NMIEdlbmVyYXRlZCBDZXJ0aWZpY2F0ZTANBgkqhkiG9w0BAQsFAAOC
AgEAKZPSNrVHp3R+XKPb2ZNk1QrE6CI+hGkQKT+9o8zbLDcllTsOCgSXcm3Tmuvp
UVTSDWx5FmPVFPj2uuvrxI2YNxOKOGBpipyCm0qhH1aNT0AjJR2NQ+fZvw2FAHX6
vyPUxezOjyWWXJZ1XuIi0I1E1kYOmeHsq1TETptwSacUBTZddcWdXvlFW9jOvqyw
YM0MwJkgkgKbziEhcgkem7uyPrRQiUNmFtvIHlzAq8JsrHLgks+D/i9wrDNsgFaf
xpD8i7N4fHYWvnBZUxOSl151wBu+BAw8KAcq6d7KQyQID2VALGL/9iZD7cO+21jX
MHSNYKuFnUuzwgTvpLn7maoSX++WLjAzRUXMzh8M7XgVkgR7a9i+wSrHkEyQqAw9
0Tu1LUlvlYvH1a3Q1N7zcGVHStWG6xCc0u2LoFn028wBMEdiLyZQx3T3nyKAKsuO
qJWnK1c3iJx3xM75n0sGzwW1S01XacwIJWhN9/U+daK3Hob9WvEwbcQSZr7AQyAK
GBxd8SxCQJJXRT+HV+VPP/qUd7/A40DDecFmj49zNC10zY8Y2VX/rvgqpQL6Hc9X
ciyxX4RWZagFo5CLIgZfF5bT/DDf6P0fLFPq28rkTNsfIZTMZ6iRWI+domDm2PHO
ghAD8aR6Xc2d1SnnAMv9tEVcBXTuvePCyeRc09ZZ/QKJd8g=
-----END CERTIFICATE-----
